(lp0
(dp1
S'width_type'
p2
S'relative'
p3
sS'height_type'
p4
g3
sS'color'
p5
S''
p6
sS'position_horizontal'
p7
S'center'
p8
sS'height'
p9
F0.10000000000000001
sS'width'
p10
I1
sS'position_horizontal_type'
p11
S'aligned'
p12
sS'stimuluses'
p13
(lp14
(dp15
g2
g3
sg4
g3
sg5
S'#333333'
p16
sS'stimulus_type'
p17
S'rectangle'
p18
sg7
g8
sg9
F0.90000000000000002
sg10
I1
sg11
g12
sg13
(lp19
(dp20
S'font_size'
p21
I20
sg7
I20
sg17
S'text'
p22
sS'font_family'
p23
S'Serif'
p24
sg11
S'absolute'
p25
sg13
(lp26
sS'font_color'
p27
S'#000000'
p28
sS'message'
p29
g6
sS'position_vertical'
p30
g8
sS'id'
p31
I909
sS'position_vertical_type'
p32
g12
sasg30
g8
sg31
I889
sg32
g12
sasg30
S'top'
p33
sg31
I888
sg32
g12
sa(dp34
g2
g3
sg4
g3
sg5
g6
sg7
g8
sg9
F0.90000000000000002
sg10
I1
sg11
g12
sg13
(lp35
(dp36
g2
g3
sg4
g3
sg5
g6
sg17
g18
sg7
F0.0
sg9
F0.5
sg10
F0.25
sg11
g3
sg13
(lp37
(dp38
g2
g3
sg4
g3
sg5
S'#00ff00'
p39
sg17
g18
sg7
g8
sg9
F0.80000000000000004
sg10
F0.80000000000000004
sg11
g12
sg13
(lp40
(dp41
g21
I20
sg7
g8
sg17
g22
sg23
g24
sg11
g12
sg13
(lp42
sg27
g28
sg29
S'X'
p43
sg30
F0.40000000000000002
sg31
I900
sg32
S'relative'
p44
sa(dp45
g2
S'absolute'
p46
sS'feedback_level'
p47
F0.0
sg4
g46
sg5
S'#ffffff'
p48
sg17
S'feedback'
p49
sg7
S'center'
p50
sg9
F70.0
sg10
F20.0
sg11
S'aligned'
p51
sg13
(lp52
sg30
F0.5
sg31
I30000
sg32
S'relative'
p53
sasg30
g8
sg31
I11
sg32
g12
sasg30
F0.0
sg31
I1
sg32
g3
sa(dp54
g2
g3
sg4
g3
sg5
g6
sg17
g18
sg7
F0.25
sg9
F0.5
sg10
F0.25
sg11
g3
sg13
(lp55
(dp56
g2
g3
sg4
g3
sg5
S'#337799'
p57
sg17
g18
sg7
g8
sg9
F0.80000000000000004
sg10
F0.80000000000000004
sg11
g12
sg13
(lp58
(dp59
g21
I20
sg7
g8
sg17
g22
sg23
g24
sg11
g12
sg13
(lp60
sg27
g28
sg29
S'X'
p61
sg30
F0.40000000000000002
sg31
I901
sg32
S'relative'
p62
sa(dp63
g2
S'absolute'
p64
sg47
F0.0
sg4
S'absolute'
p65
sg5
S'#ffffff'
p66
sg17
g49
sg7
S'center'
p67
sg9
F70.0
sg10
F20.0
sg11
S'aligned'
p68
sg13
(lp69
sg30
F0.5
sg31
I30001
sg32
S'relative'
p70
sasg30
g8
sg31
I21
sg32
g12
sasg30
F0.0
sg31
I2
sg32
g3
sa(dp71
g2
g3
sg4
g3
sg5
g6
sg17
g18
sg7
F0.5
sg9
F0.5
sg10
F0.25
sg11
g3
sg13
(lp72
(dp73
g2
g3
sg4
g3
sg5
S'#00ff00'
p74
sg17
g18
sg7
g8
sg9
F0.80000000000000004
sg10
F0.80000000000000004
sg11
g12
sg13
(lp75
(dp76
g21
I20
sg7
g8
sg17
g22
sg23
g24
sg11
g12
sg13
(lp77
sg27
g28
sg29
S'X'
p78
sg30
F0.40000000000000002
sg31
I902
sg32
S'relative'
p79
sa(dp80
g2
S'absolute'
p81
sg47
F0.0
sg4
g81
sg5
S'#ffffff'
p82
sg17
g49
sg7
S'center'
p83
sg9
F70.0
sg10
F20.0
sg11
S'aligned'
p84
sg13
(lp85
sg30
F0.5
sg31
I30002
sg32
S'relative'
p86
sasg30
g8
sg31
I31
sg32
g12
sasg30
F0.0
sg31
I3
sg32
g3
sa(dp87
g2
g3
sg4
g3
sg5
g6
sg17
g18
sg7
F0.75
sg9
F0.5
sg10
F0.25
sg11
g3
sg13
(lp88
(dp89
g2
g3
sg4
g3
sg5
g74
sg17
g18
sg7
g8
sg9
F0.80000000000000004
sg10
F0.80000000000000004
sg11
g12
sg13
(lp90
(dp91
g21
I20
sg7
g8
sg17
g22
sg23
g24
sg11
g12
sg13
(lp92
sg27
g28
sg29
S'X'
p93
sg30
F0.40000000000000002
sg31
I903
sg32
S'relative'
p94
sa(dp95
g2
S'absolute'
p96
sg47
F0.0
sg4
g96
sg5
S'#ffffff'
p97
sg17
g49
sg7
S'center'
p98
sg9
F70.0
sg10
F20.0
sg11
S'aligned'
p99
sg13
(lp100
sg30
F0.5
sg31
I30003
sg32
S'relative'
p101
sasg30
g8
sg31
I41
sg32
g12
sasg30
F0.0
sg31
I4
sg32
g3
sa(dp102
g2
g3
sg4
g3
sg5
g6
sg17
g18
sg7
F0.0
sg9
F0.5
sg10
F0.25
sg11
g3
sg13
(lp103
(dp104
g2
g3
sg4
g3
sg5
g74
sg17
g18
sg7
g8
sg9
F0.80000000000000004
sg10
F0.80000000000000004
sg11
g12
sg13
(lp105
(dp106
g21
I20
sg7
g8
sg17
g22
sg23
g24
sg11
g12
sg13
(lp107
sg27
g28
sg29
S'X'
p108
sg30
F0.40000000000000002
sg31
I904
sg32
S'relative'
p109
sa(dp110
g2
S'absolute'
p111
sg47
F0.0
sg4
g111
sg5
S'#ffffff'
p112
sg17
g49
sg7
S'center'
p113
sg9
F70.0
sg10
F20.0
sg11
S'aligned'
p114
sg13
(lp115
sg30
F0.5
sg31
I30004
sg32
S'relative'
p116
sasg30
g8
sg31
I51
sg32
g12
sasg30
F0.5
sg31
I5
sg32
g3
sa(dp117
g2
g3
sg4
g3
sg5
g6
sg17
g18
sg7
F0.25
sg9
F0.5
sg10
F0.25
sg11
g3
sg13
(lp118
(dp119
g2
g3
sg4
g3
sg5
g74
sg17
g18
sg7
g8
sg9
F0.80000000000000004
sg10
F0.80000000000000004
sg11
g12
sg13
(lp120
(dp121
g21
I20
sg7
g8
sg17
g22
sg23
g24
sg11
g12
sg13
(lp122
sg27
g28
sg29
S'X'
p123
sg30
F0.40000000000000002
sg31
I905
sg32
S'relative'
p124
sa(dp125
g2
S'absolute'
p126
sg47
F0.0
sg4
g126
sg5
S'#ffffff'
p127
sg17
g49
sg7
S'center'
p128
sg9
F70.0
sg10
F20.0
sg11
S'aligned'
p129
sg13
(lp130
sg30
F0.5
sg31
I30005
sg32
S'relative'
p131
sasg30
g8
sg31
I61
sg32
g12
sasg30
F0.5
sg31
I6
sg32
g3
sa(dp132
g2
g3
sg4
g3
sg5
g6
sg17
g18
sg7
F0.5
sg9
F0.5
sg10
F0.25
sg11
g3
sg13
(lp133
(dp134
g2
g3
sg4
g3
sg5
g74
sg17
g18
sg7
g8
sg9
F0.80000000000000004
sg10
F0.80000000000000004
sg11
g12
sg13
(lp135
(dp136
g21
I20
sg7
g8
sg17
g22
sg23
g24
sg11
g12
sg13
(lp137
sg27
g28
sg29
S'X'
p138
sg30
F0.40000000000000002
sg31
I906
sg32
S'relative'
p139
sa(dp140
g2
g126
sg47
F0.0
sg4
g126
sg5
S'#ffffff'
p141
sg17
g49
sg7
S'center'
p142
sg9
F70.0
sg10
F20.0
sg11
S'aligned'
p143
sg13
(lp144
sg30
F0.5
sg31
I30006
sg32
S'relative'
p145
sasg30
g8
sg31
I71
sg32
g12
sasg30
F0.5
sg31
I7
sg32
g3
sa(dp146
g2
g3
sg4
g3
sg5
g6
sg17
g18
sg7
F0.75
sg9
F0.5
sg10
F0.25
sg11
g3
sg13
(lp147
(dp148
g2
g3
sg4
g3
sg5
g74
sg17
g18
sg7
g8
sg9
F0.80000000000000004
sg10
F0.80000000000000004
sg11
g12
sg13
(lp149
(dp150
g21
I20
sg7
g8
sg17
g22
sg23
g24
sg11
g12
sg13
(lp151
sg27
g28
sg29
S'X'
p152
sg30
F0.40000000000000002
sg31
I907
sg32
S'relative'
p153
sa(dp154
g2
S'absolute'
p155
sg47
F0.0
sg4
g155
sg5
S'#ffffff'
p156
sg17
g49
sg7
S'center'
p157
sg9
F70.0
sg10
F20.0
sg11
S'aligned'
p158
sg13
(lp159
sg30
F0.5
sg31
I30007
sg32
S'relative'
p160
sasg30
g8
sg31
I81
sg32
g12
sasg30
F0.5
sg31
I8
sg32
g3
sasg30
S'bottom'
p161
sg31
I999
sg32
g12
sa.