(lp0
(dp1
S'width_type'
p2
S'relative'
p3
sS'height_type'
p4
g3
sS'color'
p5
S''
p6
sS'position_horizontal'
p7
S'center'
p8
sS'height'
p9
F0.10000000000000001
sS'width'
p10
I1
sS'position_horizontal_type'
p11
S'aligned'
p12
sS'stimuluses'
p13
(lp14
(dp15
g2
g3
sg4
g3
sg5
S'#333333'
p16
sS'stimulus_type'
p17
S'rectangle'
p18
sg7
g8
sg9
F0.90000000000000002
sg10
I1
sg11
g12
sg13
(lp19
(dp20
S'font_size'
p21
I20
sg7
I20
sg17
S'text'
p22
sS'font_family'
p23
S'Serif'
p24
sg11
S'absolute'
p25
sg13
(lp26
sS'font_color'
p27
S'#000000'
p28
sS'message'
p29
g6
sS'position_vertical'
p30
g8
sS'id'
p31
I909
sS'position_vertical_type'
p32
g12
sasg30
g8
sg31
I889
sg32
g12
sasg30
S'top'
p33
sg31
I888
sg32
g12
sa(dp34
g2
g3
sg4
g3
sg5
g6
sg7
g8
sg9
F0.90000000000000002
sg10
I1
sg11
g12
sg13
(lp35
(dp36
g2
g3
sg4
g3
sg5
g6
sg17
g18
sg7
F0.0
sg9
F0.5
sg10
F0.25
sg11
g3
sg13
(lp37
(dp38
g2
g3
sg4
g3
sg5
S'#00ff00'
p39
sg17
g18
sg7
g8
sg9
F0.80000000000000004
sg10
F0.80000000000000004
sg11
g12
sg13
(lp40
(dp41
g21
I20
sg7
g8
sg17
g22
sg23
g24
sg11
g12
sg13
(lp42
sg27
g28
sg29
S'X'
p43
sg30
F0.40000000000000002
sg31
I900
sg32
S'relative'
p44
sa(dp45
g2
S'absolute'
p46
sS'feedback_level'
p47
F0.0
sg4
g46
sg5
S'#ffffff'
p48
sg17
S'feedback'
p49
sg7
S'center'
p50
sg9
F70.0
sg10
F20.0
sg11
S'aligned'
p51
sg13
(lp52
sg30
F0.5
sg31
I30000
sg32
S'relative'
p53
sasg30
g8
sg31
I11
sg32
g12
sasg30
F0.0
sg31
I1
sg32
g3
sa(dp54
g2
g3
sg4
g3
sg5
g6
sg17
g18
sg7
F0.25
sg9
F0.5
sg10
F0.25
sg11
g3
sg13
(lp55
(dp56
g2
g3
sg4
g3
sg5
S'#00ff00'
p57
sg17
g18
sg7
g8
sg9
F0.80000000000000004
sg10
F0.80000000000000004
sg11
g12
sg13
(lp58
(dp59
g21
I20
sg7
g8
sg17
g22
sg23
g24
sg11
g12
sg13
(lp60
sg27
g28
sg29
S'X'
p61
sg30
F0.40000000000000002
sg31
I901
sg32
S'relative'
p62
sa(dp63
g2
S'absolute'
p64
sg47
F0.0
sg4
S'absolute'
p65
sg5
S'#ffffff'
p66
sg17
g49
sg7
S'center'
p67
sg9
F70.0
sg10
F20.0
sg11
S'aligned'
p68
sg13
(lp69
sg30
F0.5
sg31
I30001
sg32
S'relative'
p70
sasg30
g8
sg31
I21
sg32
g12
sasg30
F0.0
sg31
I2
sg32
g3
sa(dp71
g2
g3
sg4
g3
sg5
g6
sg17
g18
sg7
F0.5
sg9
F0.5
sg10
F0.25
sg11
g3
sg13
(lp72
(dp73
g2
g3
sg4
g3
sg5
S'#00ff00'
p74
sg17
g18
sg7
g8
sg9
F0.80000000000000004
sg10
F0.80000000000000004
sg11
g12
sg13
(lp75
(dp76
g21
I20
sg7
g8
sg17
g22
sg23
g24
sg11
g12
sg13
(lp77
sg27
g28
sg29
S'X'
p78
sg30
F0.40000000000000002
sg31
I902
sg32
S'relative'
p79
sa(dp80
g2
S'absolute'
p81
sg47
F0.0
sg4
g81
sg5
S'#ffffff'
p82
sg17
g49
sg7
S'center'
p83
sg9
F70.0
sg10
F20.0
sg11
S'aligned'
p84
sg13
(lp85
sg30
F0.5
sg31
I30002
sg32
S'relative'
p86
sasg30
g8
sg31
I31
sg32
g12
sasg30
F0.0
sg31
I3
sg32
g3
sa(dp87
g2
g3
sg4
g3
sg5
g6
sg17
g18
sg7
F0.75
sg9
F0.5
sg10
F0.25
sg11
g3
sg13
(lp88
(dp89
g2
g3
sg4
g3
sg5
S'#00ff00'
p90
sg17
g18
sg7
g8
sg9
F0.80000000000000004
sg10
F0.80000000000000004
sg11
g12
sg13
(lp91
(dp92
g21
I20
sg7
g8
sg17
g22
sg23
g24
sg11
g12
sg13
(lp93
sg27
g28
sg29
S'X'
p94
sg30
F0.40000000000000002
sg31
I903
sg32
S'relative'
p95
sa(dp96
g2
S'absolute'
p97
sg47
F0.0
sg4
g97
sg5
S'#ffffff'
p98
sg17
g49
sg7
S'center'
p99
sg9
F70.0
sg10
F20.0
sg11
S'aligned'
p100
sg13
(lp101
sg30
F0.5
sg31
I30003
sg32
S'relative'
p102
sasg30
g8
sg31
I41
sg32
g12
sasg30
F0.0
sg31
I4
sg32
g3
sa(dp103
g2
g3
sg4
g3
sg5
g6
sg17
g18
sg7
F0.0
sg9
F0.5
sg10
F0.25
sg11
g3
sg13
(lp104
(dp105
g2
g3
sg4
g3
sg5
S'#00ff00'
p106
sg17
g18
sg7
g8
sg9
F0.80000000000000004
sg10
F0.80000000000000004
sg11
g12
sg13
(lp107
(dp108
g21
I20
sg7
g8
sg17
g22
sg23
g24
sg11
g12
sg13
(lp109
sg27
g28
sg29
S'X'
p110
sg30
F0.40000000000000002
sg31
I904
sg32
S'relative'
p111
sa(dp112
g2
S'absolute'
p113
sg47
F0.0
sg4
g113
sg5
S'#ffffff'
p114
sg17
g49
sg7
S'center'
p115
sg9
F70.0
sg10
F20.0
sg11
S'aligned'
p116
sg13
(lp117
sg30
F0.5
sg31
I30004
sg32
S'relative'
p118
sasg30
g8
sg31
I51
sg32
g12
sasg30
F0.5
sg31
I5
sg32
g3
sa(dp119
g2
g3
sg4
g3
sg5
g6
sg17
g18
sg7
F0.25
sg9
F0.5
sg10
F0.25
sg11
g3
sg13
(lp120
(dp121
g2
g3
sg4
g3
sg5
S'#00ff00'
p122
sg17
g18
sg7
g8
sg9
F0.80000000000000004
sg10
F0.80000000000000004
sg11
g12
sg13
(lp123
(dp124
g21
I20
sg7
g8
sg17
g22
sg23
g24
sg11
g12
sg13
(lp125
sg27
g28
sg29
S'X'
p126
sg30
F0.40000000000000002
sg31
I905
sg32
S'relative'
p127
sa(dp128
g2
S'absolute'
p129
sg47
F0.0
sg4
g129
sg5
S'#ffffff'
p130
sg17
g49
sg7
S'center'
p131
sg9
F70.0
sg10
F20.0
sg11
S'aligned'
p132
sg13
(lp133
sg30
F0.5
sg31
I30005
sg32
S'relative'
p134
sasg30
g8
sg31
I61
sg32
g12
sasg30
F0.5
sg31
I6
sg32
g3
sa(dp135
g2
g3
sg4
g3
sg5
g6
sg17
g18
sg7
F0.5
sg9
F0.5
sg10
F0.25
sg11
g3
sg13
(lp136
(dp137
g2
g3
sg4
g3
sg5
S'#337799'
p138
sg17
g18
sg7
g8
sg9
F0.80000000000000004
sg10
F0.80000000000000004
sg11
g12
sg13
(lp139
(dp140
g21
I20
sg7
g8
sg17
g22
sg23
g24
sg11
g12
sg13
(lp141
sg27
g28
sg29
S'X'
p142
sg30
F0.40000000000000002
sg31
I906
sg32
S'relative'
p143
sa(dp144
g2
g129
sg47
F0.0
sg4
g129
sg5
S'#ffffff'
p145
sg17
g49
sg7
S'center'
p146
sg9
F70.0
sg10
F20.0
sg11
S'aligned'
p147
sg13
(lp148
sg30
F0.5
sg31
I30006
sg32
S'relative'
p149
sasg30
g8
sg31
I71
sg32
g12
sasg30
F0.5
sg31
I7
sg32
g3
sa(dp150
g2
g3
sg4
g3
sg5
g6
sg17
g18
sg7
F0.75
sg9
F0.5
sg10
F0.25
sg11
g3
sg13
(lp151
(dp152
g2
g3
sg4
g3
sg5
S'#00ff00'
p153
sg17
g18
sg7
g8
sg9
F0.80000000000000004
sg10
F0.80000000000000004
sg11
g12
sg13
(lp154
(dp155
g21
I20
sg7
g8
sg17
g22
sg23
g24
sg11
g12
sg13
(lp156
sg27
g28
sg29
S'X'
p157
sg30
F0.40000000000000002
sg31
I907
sg32
S'relative'
p158
sa(dp159
g2
S'absolute'
p160
sg47
F0.0
sg4
g160
sg5
S'#ffffff'
p161
sg17
g49
sg7
S'center'
p162
sg9
F70.0
sg10
F20.0
sg11
S'aligned'
p163
sg13
(lp164
sg30
F0.5
sg31
I30007
sg32
S'relative'
p165
sasg30
g8
sg31
I81
sg32
g12
sasg30
F0.5
sg31
I8
sg32
g3
sasg30
S'bottom'
p166
sg31
I999
sg32
g12
sa.