(lp0
(dp1
S'width_type'
p2
S'relative'
p3
sS'height_type'
p4
g3
sS'color'
p5
S''
p6
sS'position_horizontal'
p7
S'center'
p8
sS'height'
p9
F0.10000000000000001
sS'width'
p10
I1
sS'position_horizontal_type'
p11
S'aligned'
p12
sS'stimuluses'
p13
(lp14
(dp15
g2
g3
sg4
g3
sg5
S'#3b3b3b'
p16
sS'stimulus_type'
p17
S'rectangle'
p18
sg7
g8
sg9
F0.90000000000000002
sg10
I1
sg11
g12
sg13
(lp19
(dp20
S'font_size'
p21
I20
sg7
S'center'
p22
sg17
S'text'
p23
sS'font_family'
p24
S'Serif'
p25
sg11
S'aligned'
p26
sg13
(lp27
sS'font_color'
p28
S'#ffffff'
p29
sS'message'
p30
Vtekst
p31
sS'position_vertical'
p32
g8
sS'id'
p33
I909
sS'position_vertical_type'
p34
g12
sasg32
g8
sg33
I889
sg34
g12
sasg32
S'top'
p35
sg33
I888
sg34
g12
sa(dp36
g2
g3
sg4
g3
sg5
g6
sg7
g8
sg9
F0.90000000000000002
sg10
I1
sg11
g12
sg13
(lp37
(dp38
g2
g3
sg7
F0.0
sg5
g6
sg17
g18
sg4
g3
sg9
F0.16666666666666666
sg10
F0.16666666666666666
sg11
g3
sg13
(lp39
(dp40
g2
S'relative'
p41
sg7
g8
sg5
S'#000000'
p42
sg17
g18
sg4
g41
sg9
F1.0
sg10
F1.0
sg11
g12
sg13
(lp43
(dp44
g21
I30
sg7
g8
sg17
g23
sg33
I1001
sg11
g12
sg13
(lp45
sg28
S'#ffffff'
p46
sg30
S'A'
p47
sg32
g8
sg24
g25
sg34
g12
sasg32
g8
sg33
I101
sg34
g12
sasg32
F0.0
sg33
I1
sg34
g3
sa(dp48
g2
g3
sg7
F0.16666666666666666
sg5
g6
sg17
g18
sg4
g3
sg9
F0.16666666666666666
sg10
F0.16666666666666666
sg11
g3
sg13
(lp49
(dp50
g2
g41
sg7
g8
sg5
g42
sg17
g18
sg4
g41
sg9
F1.0
sg10
F1.0
sg11
g12
sg13
(lp51
(dp52
g21
I30
sg7
g8
sg17
g23
sg33
I1002
sg11
g12
sg13
(lp53
sg28
g46
sg30
g47
sg32
g8
sg24
g25
sg34
g12
sasg32
g8
sg33
I102
sg34
g12
sasg32
F0.0
sg33
I2
sg34
g3
sa(dp54
g2
g3
sg7
F0.33333333333333331
sg5
g6
sg17
g18
sg4
g3
sg9
F0.16666666666666666
sg10
F0.16666666666666666
sg11
g3
sg13
(lp55
(dp56
g2
g41
sg7
g8
sg5
g42
sg17
g18
sg4
g41
sg9
F1.0
sg10
F1.0
sg11
g12
sg13
(lp57
(dp58
g21
I30
sg7
g8
sg17
g23
sg33
I1003
sg11
g12
sg13
(lp59
sg28
g46
sg30
g47
sg32
g8
sg24
g25
sg34
g12
sasg32
g8
sg33
I103
sg34
g12
sasg32
F0.0
sg33
I3
sg34
g3
sa(dp60
g2
g3
sg7
F0.5
sg5
g6
sg17
g18
sg4
g3
sg9
F0.16666666666666666
sg10
F0.16666666666666666
sg11
g3
sg13
(lp61
(dp62
g2
g41
sg7
g8
sg5
g42
sg17
g18
sg4
g41
sg9
F1.0
sg10
F1.0
sg11
g12
sg13
(lp63
(dp64
g21
I30
sg7
g8
sg17
g23
sg33
I1004
sg11
g12
sg13
(lp65
sg28
g46
sg30
g47
sg32
g8
sg24
g25
sg34
g12
sasg32
g8
sg33
I104
sg34
g12
sasg32
F0.0
sg33
I4
sg34
g3
sa(dp66
g2
g3
sg7
F0.66666666666666663
sg5
g6
sg17
g18
sg4
g3
sg9
F0.16666666666666666
sg10
F0.16666666666666666
sg11
g3
sg13
(lp67
(dp68
g2
g41
sg7
g8
sg5
g42
sg17
g18
sg4
g41
sg9
F1.0
sg10
F1.0
sg11
g12
sg13
(lp69
(dp70
g21
I30
sg7
g8
sg17
g23
sg33
I1005
sg11
g12
sg13
(lp71
sg28
g46
sg30
g47
sg32
g8
sg24
g25
sg34
g12
sasg32
g8
sg33
I105
sg34
g12
sasg32
F0.0
sg33
I5
sg34
g3
sa(dp72
g2
g3
sg7
F0.83333333333333326
sg5
g6
sg17
g18
sg4
g3
sg9
F0.16666666666666666
sg10
F0.16666666666666666
sg11
g3
sg13
(lp73
(dp74
g2
g41
sg7
g8
sg5
g42
sg17
g18
sg4
g41
sg9
F1.0
sg10
F1.0
sg11
g12
sg13
(lp75
(dp76
g21
I30
sg7
g8
sg17
g23
sg33
I1006
sg11
g12
sg13
(lp77
sg28
g46
sg30
g47
sg32
g8
sg24
g25
sg34
g12
sasg32
g8
sg33
I106
sg34
g12
sasg32
F0.0
sg33
I6
sg34
g3
sa(dp78
g2
g3
sg7
F0.0
sg5
g6
sg17
g18
sg4
g3
sg9
F0.16666666666666666
sg10
F0.16666666666666666
sg11
g3
sg13
(lp79
(dp80
g2
g41
sg7
g8
sg5
g42
sg17
g18
sg4
g41
sg9
F1.0
sg10
F1.0
sg11
g12
sg13
(lp81
(dp82
g21
I30
sg7
g8
sg17
g23
sg33
I1007
sg11
g12
sg13
(lp83
sg28
g46
sg30
g47
sg32
g8
sg24
g25
sg34
g12
sasg32
g8
sg33
I107
sg34
g12
sasg32
F0.16666666666666666
sg33
I7
sg34
g3
sa(dp84
g2
g3
sg7
F0.16666666666666666
sg5
g6
sg17
g18
sg4
g3
sg9
F0.16666666666666666
sg10
F0.16666666666666666
sg11
g3
sg13
(lp85
(dp86
g2
g41
sg7
g8
sg5
g42
sg17
g18
sg4
g41
sg9
F1.0
sg10
F1.0
sg11
g12
sg13
(lp87
(dp88
g21
I30
sg7
g8
sg17
g23
sg33
I1008
sg11
g12
sg13
(lp89
sg28
g46
sg30
g47
sg32
g8
sg24
g25
sg34
g12
sasg32
g8
sg33
I108
sg34
g12
sasg32
F0.16666666666666666
sg33
I8
sg34
g3
sa(dp90
g2
g3
sg7
F0.33333333333333331
sg5
g6
sg17
g18
sg4
g3
sg9
F0.16666666666666666
sg10
F0.16666666666666666
sg11
g3
sg13
(lp91
(dp92
g2
g41
sg7
g8
sg5
g42
sg17
g18
sg4
g41
sg9
F1.0
sg10
F1.0
sg11
g12
sg13
(lp93
(dp94
g21
I30
sg7
g8
sg17
g23
sg33
I1009
sg11
g12
sg13
(lp95
sg28
g46
sg30
g47
sg32
g8
sg24
g25
sg34
g12
sasg32
g8
sg33
I109
sg34
g12
sasg32
F0.16666666666666666
sg33
I9
sg34
g3
sa(dp96
g2
g3
sg7
F0.5
sg5
g6
sg17
g18
sg4
g3
sg9
F0.16666666666666666
sg10
F0.16666666666666666
sg11
g3
sg13
(lp97
(dp98
g2
g41
sg7
g8
sg5
g42
sg17
g18
sg4
g41
sg9
F1.0
sg10
F1.0
sg11
g12
sg13
(lp99
(dp100
g21
I30
sg7
g8
sg17
g23
sg33
I1010
sg11
g12
sg13
(lp101
sg28
g46
sg30
g47
sg32
g8
sg24
g25
sg34
g12
sasg32
g8
sg33
I110
sg34
g12
sasg32
F0.16666666666666666
sg33
I10
sg34
g3
sa(dp102
g2
g3
sg7
F0.66666666666666663
sg5
g6
sg17
g18
sg4
g3
sg9
F0.16666666666666666
sg10
F0.16666666666666666
sg11
g3
sg13
(lp103
(dp104
g2
g41
sg7
g8
sg5
g42
sg17
g18
sg4
g41
sg9
F1.0
sg10
F1.0
sg11
g12
sg13
(lp105
(dp106
g21
I30
sg7
g8
sg17
g23
sg33
I1011
sg11
g12
sg13
(lp107
sg28
g46
sg30
g47
sg32
g8
sg24
g25
sg34
g12
sasg32
g8
sg33
I111
sg34
g12
sasg32
F0.16666666666666666
sg33
I11
sg34
g3
sa(dp108
g2
g3
sg7
F0.83333333333333326
sg5
g6
sg17
g18
sg4
g3
sg9
F0.16666666666666666
sg10
F0.16666666666666666
sg11
g3
sg13
(lp109
(dp110
g2
g41
sg7
g8
sg5
g42
sg17
g18
sg4
g41
sg9
F1.0
sg10
F1.0
sg11
g12
sg13
(lp111
(dp112
g21
I30
sg7
g8
sg17
g23
sg33
I1012
sg11
g12
sg13
(lp113
sg28
g46
sg30
g47
sg32
g8
sg24
g25
sg34
g12
sasg32
g8
sg33
I112
sg34
g12
sasg32
F0.16666666666666666
sg33
I12
sg34
g3
sa(dp114
g2
g3
sg7
F0.0
sg5
g6
sg17
g18
sg4
g3
sg9
F0.16666666666666666
sg10
F0.16666666666666666
sg11
g3
sg13
(lp115
(dp116
g2
g41
sg7
g8
sg5
g42
sg17
g18
sg4
g41
sg9
F1.0
sg10
F1.0
sg11
g12
sg13
(lp117
(dp118
g21
I30
sg7
g8
sg17
g23
sg33
I1013
sg11
g12
sg13
(lp119
sg28
g46
sg30
g47
sg32
g8
sg24
g25
sg34
g12
sasg32
g8
sg33
I113
sg34
g12
sasg32
F0.33333333333333331
sg33
I13
sg34
g3
sa(dp120
g2
g3
sg7
F0.16666666666666666
sg5
g6
sg17
g18
sg4
g3
sg9
F0.16666666666666666
sg10
F0.16666666666666666
sg11
g3
sg13
(lp121
(dp122
g2
g41
sg7
g8
sg5
g42
sg17
g18
sg4
g41
sg9
F1.0
sg10
F1.0
sg11
g12
sg13
(lp123
(dp124
g21
I30
sg7
g8
sg17
g23
sg33
I1014
sg11
g12
sg13
(lp125
sg28
g46
sg30
g47
sg32
g8
sg24
g25
sg34
g12
sasg32
g8
sg33
I114
sg34
g12
sasg32
F0.33333333333333331
sg33
I14
sg34
g3
sa(dp126
g2
g3
sg7
F0.33333333333333331
sg5
g6
sg17
g18
sg4
g3
sg9
F0.16666666666666666
sg10
F0.16666666666666666
sg11
g3
sg13
(lp127
(dp128
g2
g41
sg7
g8
sg5
g42
sg17
g18
sg4
g41
sg9
F1.0
sg10
F1.0
sg11
g12
sg13
(lp129
(dp130
g21
I30
sg7
g8
sg17
g23
sg33
I1015
sg11
g12
sg13
(lp131
sg28
g46
sg30
g47
sg32
g8
sg24
g25
sg34
g12
sasg32
g8
sg33
I115
sg34
g12
sasg32
F0.33333333333333331
sg33
I15
sg34
g3
sa(dp132
g2
g3
sg7
F0.5
sg5
g6
sg17
g18
sg4
g3
sg9
F0.16666666666666666
sg10
F0.16666666666666666
sg11
g3
sg13
(lp133
(dp134
g2
g41
sg7
g8
sg5
g42
sg17
g18
sg4
g41
sg9
F1.0
sg10
F1.0
sg11
g12
sg13
(lp135
(dp136
g21
I30
sg7
g8
sg17
g23
sg33
I1016
sg11
g12
sg13
(lp137
sg28
g46
sg30
g47
sg32
g8
sg24
g25
sg34
g12
sasg32
g8
sg33
I116
sg34
g12
sasg32
F0.33333333333333331
sg33
I16
sg34
g3
sa(dp138
g2
g3
sg7
F0.66666666666666663
sg5
g6
sg17
g18
sg4
g3
sg9
F0.16666666666666666
sg10
F0.16666666666666666
sg11
g3
sg13
(lp139
(dp140
g2
g41
sg7
g8
sg5
g42
sg17
g18
sg4
g41
sg9
F1.0
sg10
F1.0
sg11
g12
sg13
(lp141
(dp142
g21
I30
sg7
g8
sg17
g23
sg33
I1017
sg11
g12
sg13
(lp143
sg28
g46
sg30
g47
sg32
g8
sg24
g25
sg34
g12
sasg32
g8
sg33
I117
sg34
g12
sasg32
F0.33333333333333331
sg33
I17
sg34
g3
sa(dp144
g2
g3
sg7
F0.83333333333333326
sg5
g6
sg17
g18
sg4
g3
sg9
F0.16666666666666666
sg10
F0.16666666666666666
sg11
g3
sg13
(lp145
(dp146
g2
g41
sg7
g8
sg5
g42
sg17
g18
sg4
g41
sg9
F1.0
sg10
F1.0
sg11
g12
sg13
(lp147
(dp148
g21
I30
sg7
g8
sg17
g23
sg33
I1018
sg11
g12
sg13
(lp149
sg28
g46
sg30
g47
sg32
g8
sg24
g25
sg34
g12
sasg32
g8
sg33
I118
sg34
g12
sasg32
F0.33333333333333331
sg33
I18
sg34
g3
sa(dp150
g2
g3
sg7
F0.0
sg5
g6
sg17
g18
sg4
g3
sg9
F0.16666666666666666
sg10
F0.16666666666666666
sg11
g3
sg13
(lp151
(dp152
g2
g41
sg7
g8
sg5
g42
sg17
g18
sg4
g41
sg9
F1.0
sg10
F1.0
sg11
g12
sg13
(lp153
(dp154
g21
I30
sg7
g8
sg17
g23
sg33
I1019
sg11
g12
sg13
(lp155
sg28
g46
sg30
g47
sg32
g8
sg24
g25
sg34
g12
sasg32
g8
sg33
I119
sg34
g12
sasg32
F0.5
sg33
I19
sg34
g3
sa(dp156
g2
g3
sg7
F0.16666666666666666
sg5
g6
sg17
g18
sg4
g3
sg9
F0.16666666666666666
sg10
F0.16666666666666666
sg11
g3
sg13
(lp157
(dp158
g2
g41
sg7
g8
sg5
g42
sg17
g18
sg4
g41
sg9
F1.0
sg10
F1.0
sg11
g12
sg13
(lp159
(dp160
g21
I30
sg7
g8
sg17
g23
sg33
I1020
sg11
g12
sg13
(lp161
sg28
g46
sg30
g47
sg32
g8
sg24
g25
sg34
g12
sasg32
g8
sg33
I120
sg34
g12
sasg32
F0.5
sg33
I20
sg34
g3
sa(dp162
g2
g3
sg7
F0.33333333333333331
sg5
g6
sg17
g18
sg4
g3
sg9
F0.16666666666666666
sg10
F0.16666666666666666
sg11
g3
sg13
(lp163
(dp164
g2
g41
sg7
g8
sg5
g42
sg17
g18
sg4
g41
sg9
F1.0
sg10
F1.0
sg11
g12
sg13
(lp165
(dp166
g21
I30
sg7
g8
sg17
g23
sg33
I1021
sg11
g12
sg13
(lp167
sg28
g46
sg30
g47
sg32
g8
sg24
g25
sg34
g12
sasg32
g8
sg33
I121
sg34
g12
sasg32
F0.5
sg33
I21
sg34
g3
sa(dp168
g2
g3
sg7
F0.5
sg5
g6
sg17
g18
sg4
g3
sg9
F0.16666666666666666
sg10
F0.16666666666666666
sg11
g3
sg13
(lp169
(dp170
g2
g41
sg7
g8
sg5
g42
sg17
g18
sg4
g41
sg9
F1.0
sg10
F1.0
sg11
g12
sg13
(lp171
(dp172
g21
I30
sg7
g8
sg17
g23
sg33
I1022
sg11
g12
sg13
(lp173
sg28
g46
sg30
g47
sg32
g8
sg24
g25
sg34
g12
sasg32
g8
sg33
I122
sg34
g12
sasg32
F0.5
sg33
I22
sg34
g3
sa(dp174
g2
g3
sg7
F0.66666666666666663
sg5
g6
sg17
g18
sg4
g3
sg9
F0.16666666666666666
sg10
F0.16666666666666666
sg11
g3
sg13
(lp175
(dp176
g2
g41
sg7
g8
sg5
g42
sg17
g18
sg4
g41
sg9
F1.0
sg10
F1.0
sg11
g12
sg13
(lp177
(dp178
g21
I30
sg7
g8
sg17
g23
sg33
I1023
sg11
g12
sg13
(lp179
sg28
g46
sg30
g47
sg32
g8
sg24
g25
sg34
g12
sasg32
g8
sg33
I123
sg34
g12
sasg32
F0.5
sg33
I23
sg34
g3
sa(dp180
g2
g3
sg7
F0.83333333333333326
sg5
g6
sg17
g18
sg4
g3
sg9
F0.16666666666666666
sg10
F0.16666666666666666
sg11
g3
sg13
(lp181
(dp182
g2
g41
sg7
g8
sg5
g42
sg17
g18
sg4
g41
sg9
F1.0
sg10
F1.0
sg11
g12
sg13
(lp183
(dp184
g21
I30
sg7
g8
sg17
g23
sg33
I1024
sg11
g12
sg13
(lp185
sg28
g46
sg30
g47
sg32
g8
sg24
g25
sg34
g12
sasg32
g8
sg33
I124
sg34
g12
sasg32
F0.5
sg33
I24
sg34
g3
sa(dp186
g2
g3
sg7
F0.0
sg5
g6
sg17
g18
sg4
g3
sg9
F0.16666666666666666
sg10
F0.16666666666666666
sg11
g3
sg13
(lp187
(dp188
g2
g41
sg7
g8
sg5
g42
sg17
g18
sg4
g41
sg9
F1.0
sg10
F1.0
sg11
g12
sg13
(lp189
(dp190
g21
I30
sg7
g8
sg17
g23
sg33
I1025
sg11
g12
sg13
(lp191
sg28
g46
sg30
g47
sg32
g8
sg24
g25
sg34
g12
sasg32
g8
sg33
I125
sg34
g12
sasg32
F0.66666666666666663
sg33
I25
sg34
g3
sa(dp192
g2
g3
sg7
F0.16666666666666666
sg5
g6
sg17
g18
sg4
g3
sg9
F0.16666666666666666
sg10
F0.16666666666666666
sg11
g3
sg13
(lp193
(dp194
g2
g41
sg7
g8
sg5
g42
sg17
g18
sg4
g41
sg9
F1.0
sg10
F1.0
sg11
g12
sg13
(lp195
(dp196
g21
I30
sg7
g8
sg17
g23
sg33
I1026
sg11
g12
sg13
(lp197
sg28
g46
sg30
g47
sg32
g8
sg24
g25
sg34
g12
sasg32
g8
sg33
I126
sg34
g12
sasg32
F0.66666666666666663
sg33
I26
sg34
g3
sa(dp198
g2
g3
sg7
F0.33333333333333331
sg5
g6
sg17
g18
sg4
g3
sg9
F0.16666666666666666
sg10
F0.16666666666666666
sg11
g3
sg13
(lp199
(dp200
g2
g41
sg7
g8
sg5
g42
sg17
g18
sg4
g41
sg9
F1.0
sg10
F1.0
sg11
g12
sg13
(lp201
(dp202
g21
I30
sg7
g8
sg17
g23
sg33
I1027
sg11
g12
sg13
(lp203
sg28
g46
sg30
g47
sg32
g8
sg24
g25
sg34
g12
sasg32
g8
sg33
I127
sg34
g12
sasg32
F0.66666666666666663
sg33
I27
sg34
g3
sa(dp204
g2
g3
sg7
F0.5
sg5
g6
sg17
g18
sg4
g3
sg9
F0.16666666666666666
sg10
F0.16666666666666666
sg11
g3
sg13
(lp205
(dp206
g2
g41
sg7
g8
sg5
g42
sg17
g18
sg4
g41
sg9
F1.0
sg10
F1.0
sg11
g12
sg13
(lp207
(dp208
g21
I30
sg7
g8
sg17
g23
sg33
I1028
sg11
g12
sg13
(lp209
sg28
g46
sg30
g47
sg32
g8
sg24
g25
sg34
g12
sasg32
g8
sg33
I128
sg34
g12
sasg32
F0.66666666666666663
sg33
I28
sg34
g3
sa(dp210
g2
g3
sg7
F0.66666666666666663
sg5
g6
sg17
g18
sg4
g3
sg9
F0.16666666666666666
sg10
F0.16666666666666666
sg11
g3
sg13
(lp211
(dp212
g2
g41
sg7
g8
sg5
g42
sg17
g18
sg4
g41
sg9
F1.0
sg10
F1.0
sg11
g12
sg13
(lp213
(dp214
g21
I30
sg7
g8
sg17
g23
sg33
I1029
sg11
g12
sg13
(lp215
sg28
g46
sg30
g47
sg32
g8
sg24
g25
sg34
g12
sasg32
g8
sg33
I129
sg34
g12
sasg32
F0.66666666666666663
sg33
I29
sg34
g3
sa(dp216
g2
g3
sg7
F0.83333333333333326
sg5
g6
sg17
g18
sg4
g3
sg9
F0.16666666666666666
sg10
F0.16666666666666666
sg11
g3
sg13
(lp217
(dp218
g2
g41
sg7
g8
sg5
g42
sg17
g18
sg4
g41
sg9
F1.0
sg10
F1.0
sg11
g12
sg13
(lp219
(dp220
g21
I30
sg7
g8
sg17
g23
sg33
I1030
sg11
g12
sg13
(lp221
sg28
g46
sg30
g47
sg32
g8
sg24
g25
sg34
g12
sasg32
g8
sg33
I130
sg34
g12
sasg32
F0.66666666666666663
sg33
I30
sg34
g3
sa(dp222
g2
g3
sg7
F0.0
sg5
g6
sg17
g18
sg4
g3
sg9
F0.16666666666666666
sg10
F0.16666666666666666
sg11
g3
sg13
(lp223
(dp224
g2
g41
sg7
g8
sg5
g42
sg17
g18
sg4
g41
sg9
F1.0
sg10
F1.0
sg11
g12
sg13
(lp225
(dp226
g21
I30
sg7
g8
sg17
g23
sg33
I1031
sg11
g12
sg13
(lp227
sg28
g46
sg30
g47
sg32
g8
sg24
g25
sg34
g12
sasg32
g8
sg33
I131
sg34
g12
sasg32
F0.83333333333333326
sg33
I31
sg34
g3
sa(dp228
g2
g3
sg7
F0.16666666666666666
sg5
g6
sg17
g18
sg4
g3
sg9
F0.16666666666666666
sg10
F0.16666666666666666
sg11
g3
sg13
(lp229
(dp230
g2
g41
sg7
g8
sg5
g42
sg17
g18
sg4
g41
sg9
F1.0
sg10
F1.0
sg11
g12
sg13
(lp231
(dp232
g21
I30
sg7
g8
sg17
g23
sg33
I1032
sg11
g12
sg13
(lp233
sg28
g46
sg30
g47
sg32
g8
sg24
g25
sg34
g12
sasg32
g8
sg33
I132
sg34
g12
sasg32
F0.83333333333333326
sg33
I32
sg34
g3
sa(dp234
g2
g3
sg7
F0.33333333333333331
sg5
g6
sg17
g18
sg4
g3
sg9
F0.16666666666666666
sg10
F0.16666666666666666
sg11
g3
sg13
(lp235
(dp236
g2
g41
sg7
g8
sg5
g42
sg17
g18
sg4
g41
sg9
F1.0
sg10
F1.0
sg11
g12
sg13
(lp237
(dp238
g21
I30
sg7
g8
sg17
g23
sg33
I1033
sg11
g12
sg13
(lp239
sg28
g46
sg30
g47
sg32
g8
sg24
g25
sg34
g12
sasg32
g8
sg33
I133
sg34
g12
sasg32
F0.83333333333333326
sg33
I33
sg34
g3
sa(dp240
g2
g3
sg7
F0.5
sg5
g6
sg17
g18
sg4
g3
sg9
F0.16666666666666666
sg10
F0.16666666666666666
sg11
g3
sg13
(lp241
(dp242
g2
g41
sg7
g8
sg5
g42
sg17
g18
sg4
g41
sg9
F1.0
sg10
F1.0
sg11
g12
sg13
(lp243
(dp244
g21
I30
sg7
g8
sg17
g23
sg33
I1034
sg11
g12
sg13
(lp245
sg28
g46
sg30
g47
sg32
g8
sg24
g25
sg34
g12
sasg32
g8
sg33
I134
sg34
g12
sasg32
F0.83333333333333326
sg33
I34
sg34
g3
sa(dp246
g2
g3
sg7
F0.66666666666666663
sg5
g6
sg17
g18
sg4
g3
sg9
F0.16666666666666666
sg10
F0.16666666666666666
sg11
g3
sg13
(lp247
(dp248
g2
g41
sg7
g8
sg5
g42
sg17
g18
sg4
g41
sg9
F1.0
sg10
F1.0
sg11
g12
sg13
(lp249
(dp250
g21
I30
sg7
g8
sg17
g23
sg33
I1035
sg11
g12
sg13
(lp251
sg28
g46
sg30
g47
sg32
g8
sg24
g25
sg34
g12
sasg32
g8
sg33
I135
sg34
g12
sasg32
F0.83333333333333326
sg33
I35
sg34
g3
sa(dp252
g2
g3
sg7
F0.83333333333333326
sg5
g6
sg17
g18
sg4
g3
sg9
F0.16666666666666666
sg10
F0.16666666666666666
sg11
g3
sg13
(lp253
(dp254
g2
g41
sg7
g8
sg5
g42
sg17
g18
sg4
g41
sg9
F1.0
sg10
F1.0
sg11
g12
sg13
(lp255
(dp256
g21
I30
sg7
g8
sg17
g23
sg33
I1036
sg11
g12
sg13
(lp257
sg28
g46
sg30
g47
sg32
g8
sg24
g25
sg34
g12
sasg32
g8
sg33
I136
sg34
g12
sasg32
F0.83333333333333326
sg33
I36
sg34
g3
sasg32
S'bottom'
p258
sg33
I999
sg34
g12
sa.