(lp0
(dp1
S'width_type'
p2
S'relative'
p3
sS'height_type'
p4
g3
sS'color'
p5
S''
p6
sS'position_horizontal'
p7
S'center'
p8
sS'height'
p9
F0.1
sS'width'
p10
I1
sS'position_horizontal_type'
p11
S'aligned'
p12
sS'stimuluses'
p13
(lp14
(dp15
g2
g3
sg4
g3
sg5
S'#3b3b3b'
p16
sS'stimulus_type'
p17
S'rectangle'
p18
sg7
g8
sg9
F0.9
sg10
I1
sg11
g12
sg13
(lp19
(dp20
S'font_size'
p21
I20
sg7
S'center'
p22
sg17
S'text'
p23
sS'font_family'
p24
S'Serif'
p25
sg11
S'aligned'
p26
sg13
(lp27
sS'font_color'
p28
S'#ffffff'
p29
sS'message'
p30
Vtekst
p31
sS'position_vertical'
p32
g8
sS'id'
p33
I909
sS'position_vertical_type'
p34
g12
sasg32
g8
sg33
I889
sg34
g12
sasg32
S'top'
p35
sg33
I888
sg34
g12
sa(dp36
g2
g3
sg4
g3
sg5
g6
sg7
g8
sg9
F0.9
sg10
I1
sg11
g12
sg13
(lp37
(dp38
g2
g3
sg7
F0.0
sg5
g6
sg17
g18
sg4
g3
sg9
F0.125
sg10
F0.1
sg11
g3
sg13
(lp39
(dp40
g2
S'relative'
p41
sg7
g8
sg5
S'#000000'
p42
sg17
g18
sg4
g41
sg9
F1.0
sg10
F1.0
sg11
g12
sg13
(lp43
(dp44
g21
I30
sg7
g8
sg17
g23
sg33
I1001
sg11
g12
sg13
(lp45
sg28
S'#ffffff'
p46
sg30
S'A'
p47
sg32
g8
sg24
g25
sg34
g12
sasg32
g8
sg33
I101
sg34
g12
sasg32
F0.0
sg33
I1
sg34
g3
sa(dp48
g2
g3
sg7
F0.1
sg5
g6
sg17
g18
sg4
g3
sg9
F0.125
sg10
F0.1
sg11
g3
sg13
(lp49
(dp50
g2
g41
sg7
g8
sg5
g42
sg17
g18
sg4
g41
sg9
F1.0
sg10
F1.0
sg11
g12
sg13
(lp51
(dp52
g21
I30
sg7
g8
sg17
g23
sg33
I1002
sg11
g12
sg13
(lp53
sg28
g46
sg30
g47
sg32
g8
sg24
g25
sg34
g12
sasg32
g8
sg33
I102
sg34
g12
sasg32
F0.0
sg33
I2
sg34
g3
sa(dp54
g2
g3
sg7
F0.2
sg5
g6
sg17
g18
sg4
g3
sg9
F0.125
sg10
F0.1
sg11
g3
sg13
(lp55
(dp56
g2
g41
sg7
g8
sg5
g42
sg17
g18
sg4
g41
sg9
F1.0
sg10
F1.0
sg11
g12
sg13
(lp57
(dp58
g21
I30
sg7
g8
sg17
g23
sg33
I1003
sg11
g12
sg13
(lp59
sg28
g46
sg30
g47
sg32
g8
sg24
g25
sg34
g12
sasg32
g8
sg33
I103
sg34
g12
sasg32
F0.0
sg33
I3
sg34
g3
sa(dp60
g2
g3
sg7
F0.30000000000000004
sg5
g6
sg17
g18
sg4
g3
sg9
F0.125
sg10
F0.1
sg11
g3
sg13
(lp61
(dp62
g2
g41
sg7
g8
sg5
g42
sg17
g18
sg4
g41
sg9
F1.0
sg10
F1.0
sg11
g12
sg13
(lp63
(dp64
g21
I30
sg7
g8
sg17
g23
sg33
I1004
sg11
g12
sg13
(lp65
sg28
g46
sg30
g47
sg32
g8
sg24
g25
sg34
g12
sasg32
g8
sg33
I104
sg34
g12
sasg32
F0.0
sg33
I4
sg34
g3
sa(dp66
g2
g3
sg7
F0.4
sg5
g6
sg17
g18
sg4
g3
sg9
F0.125
sg10
F0.1
sg11
g3
sg13
(lp67
(dp68
g2
g41
sg7
g8
sg5
g42
sg17
g18
sg4
g41
sg9
F1.0
sg10
F1.0
sg11
g12
sg13
(lp69
(dp70
g21
I30
sg7
g8
sg17
g23
sg33
I1005
sg11
g12
sg13
(lp71
sg28
g46
sg30
g47
sg32
g8
sg24
g25
sg34
g12
sasg32
g8
sg33
I105
sg34
g12
sasg32
F0.0
sg33
I5
sg34
g3
sa(dp72
g2
g3
sg7
F0.5
sg5
g6
sg17
g18
sg4
g3
sg9
F0.125
sg10
F0.1
sg11
g3
sg13
(lp73
(dp74
g2
g41
sg7
g8
sg5
g42
sg17
g18
sg4
g41
sg9
F1.0
sg10
F1.0
sg11
g12
sg13
(lp75
(dp76
g21
I30
sg7
g8
sg17
g23
sg33
I1006
sg11
g12
sg13
(lp77
sg28
g46
sg30
g47
sg32
g8
sg24
g25
sg34
g12
sasg32
g8
sg33
I106
sg34
g12
sasg32
F0.0
sg33
I6
sg34
g3
sa(dp78
g2
g3
sg7
F0.6000000000000001
sg5
g6
sg17
g18
sg4
g3
sg9
F0.125
sg10
F0.1
sg11
g3
sg13
(lp79
(dp80
g2
g41
sg7
g8
sg5
g42
sg17
g18
sg4
g41
sg9
F1.0
sg10
F1.0
sg11
g12
sg13
(lp81
(dp82
g21
I30
sg7
g8
sg17
g23
sg33
I1007
sg11
g12
sg13
(lp83
sg28
g46
sg30
g47
sg32
g8
sg24
g25
sg34
g12
sasg32
g8
sg33
I107
sg34
g12
sasg32
F0.0
sg33
I7
sg34
g3
sa(dp84
g2
g3
sg7
F0.7000000000000001
sg5
g6
sg17
g18
sg4
g3
sg9
F0.125
sg10
F0.1
sg11
g3
sg13
(lp85
(dp86
g2
g41
sg7
g8
sg5
g42
sg17
g18
sg4
g41
sg9
F1.0
sg10
F1.0
sg11
g12
sg13
(lp87
(dp88
g21
I30
sg7
g8
sg17
g23
sg33
I1008
sg11
g12
sg13
(lp89
sg28
g46
sg30
g47
sg32
g8
sg24
g25
sg34
g12
sasg32
g8
sg33
I108
sg34
g12
sasg32
F0.0
sg33
I8
sg34
g3
sa(dp90
g2
g3
sg7
F0.8
sg5
g6
sg17
g18
sg4
g3
sg9
F0.125
sg10
F0.1
sg11
g3
sg13
(lp91
(dp92
g2
g41
sg7
g8
sg5
g42
sg17
g18
sg4
g41
sg9
F1.0
sg10
F1.0
sg11
g12
sg13
(lp93
(dp94
g21
I30
sg7
g8
sg17
g23
sg33
I1009
sg11
g12
sg13
(lp95
sg28
g46
sg30
g47
sg32
g8
sg24
g25
sg34
g12
sasg32
g8
sg33
I109
sg34
g12
sasg32
F0.0
sg33
I9
sg34
g3
sa(dp96
g2
g3
sg7
F0.9
sg5
g6
sg17
g18
sg4
g3
sg9
F0.125
sg10
F0.1
sg11
g3
sg13
(lp97
(dp98
g2
g41
sg7
g8
sg5
g42
sg17
g18
sg4
g41
sg9
F1.0
sg10
F1.0
sg11
g12
sg13
(lp99
(dp100
g21
I30
sg7
g8
sg17
g23
sg33
I1010
sg11
g12
sg13
(lp101
sg28
g46
sg30
g47
sg32
g8
sg24
g25
sg34
g12
sasg32
g8
sg33
I110
sg34
g12
sasg32
F0.0
sg33
I10
sg34
g3
sa(dp102
g2
g3
sg7
F0.0
sg5
g6
sg17
g18
sg4
g3
sg9
F0.125
sg10
F0.1
sg11
g3
sg13
(lp103
(dp104
g2
g41
sg7
g8
sg5
g42
sg17
g18
sg4
g41
sg9
F1.0
sg10
F1.0
sg11
g12
sg13
(lp105
(dp106
g21
I30
sg7
g8
sg17
g23
sg33
I1011
sg11
g12
sg13
(lp107
sg28
g46
sg30
g47
sg32
g8
sg24
g25
sg34
g12
sasg32
g8
sg33
I111
sg34
g12
sasg32
F0.125
sg33
I11
sg34
g3
sa(dp108
g2
g3
sg7
F0.1
sg5
g6
sg17
g18
sg4
g3
sg9
F0.125
sg10
F0.1
sg11
g3
sg13
(lp109
(dp110
g2
g41
sg7
g8
sg5
g42
sg17
g18
sg4
g41
sg9
F1.0
sg10
F1.0
sg11
g12
sg13
(lp111
(dp112
g21
I30
sg7
g8
sg17
g23
sg33
I1012
sg11
g12
sg13
(lp113
sg28
g46
sg30
g47
sg32
g8
sg24
g25
sg34
g12
sasg32
g8
sg33
I112
sg34
g12
sasg32
F0.125
sg33
I12
sg34
g3
sa(dp114
g2
g3
sg7
F0.2
sg5
g6
sg17
g18
sg4
g3
sg9
F0.125
sg10
F0.1
sg11
g3
sg13
(lp115
(dp116
g2
g41
sg7
g8
sg5
g42
sg17
g18
sg4
g41
sg9
F1.0
sg10
F1.0
sg11
g12
sg13
(lp117
(dp118
g21
I30
sg7
g8
sg17
g23
sg33
I1013
sg11
g12
sg13
(lp119
sg28
g46
sg30
g47
sg32
g8
sg24
g25
sg34
g12
sasg32
g8
sg33
I113
sg34
g12
sasg32
F0.125
sg33
I13
sg34
g3
sa(dp120
g2
g3
sg7
F0.30000000000000004
sg5
g6
sg17
g18
sg4
g3
sg9
F0.125
sg10
F0.1
sg11
g3
sg13
(lp121
(dp122
g2
g41
sg7
g8
sg5
g42
sg17
g18
sg4
g41
sg9
F1.0
sg10
F1.0
sg11
g12
sg13
(lp123
(dp124
g21
I30
sg7
g8
sg17
g23
sg33
I1014
sg11
g12
sg13
(lp125
sg28
g46
sg30
g47
sg32
g8
sg24
g25
sg34
g12
sasg32
g8
sg33
I114
sg34
g12
sasg32
F0.125
sg33
I14
sg34
g3
sa(dp126
g2
g3
sg7
F0.4
sg5
g6
sg17
g18
sg4
g3
sg9
F0.125
sg10
F0.1
sg11
g3
sg13
(lp127
(dp128
g2
g41
sg7
g8
sg5
g42
sg17
g18
sg4
g41
sg9
F1.0
sg10
F1.0
sg11
g12
sg13
(lp129
(dp130
g21
I30
sg7
g8
sg17
g23
sg33
I1015
sg11
g12
sg13
(lp131
sg28
g46
sg30
g47
sg32
g8
sg24
g25
sg34
g12
sasg32
g8
sg33
I115
sg34
g12
sasg32
F0.125
sg33
I15
sg34
g3
sa(dp132
g2
g3
sg7
F0.5
sg5
g6
sg17
g18
sg4
g3
sg9
F0.125
sg10
F0.1
sg11
g3
sg13
(lp133
(dp134
g2
g41
sg7
g8
sg5
g42
sg17
g18
sg4
g41
sg9
F1.0
sg10
F1.0
sg11
g12
sg13
(lp135
(dp136
g21
I30
sg7
g8
sg17
g23
sg33
I1016
sg11
g12
sg13
(lp137
sg28
g46
sg30
g47
sg32
g8
sg24
g25
sg34
g12
sasg32
g8
sg33
I116
sg34
g12
sasg32
F0.125
sg33
I16
sg34
g3
sa(dp138
g2
g3
sg7
F0.6000000000000001
sg5
g6
sg17
g18
sg4
g3
sg9
F0.125
sg10
F0.1
sg11
g3
sg13
(lp139
(dp140
g2
g41
sg7
g8
sg5
g42
sg17
g18
sg4
g41
sg9
F1.0
sg10
F1.0
sg11
g12
sg13
(lp141
(dp142
g21
I30
sg7
g8
sg17
g23
sg33
I1017
sg11
g12
sg13
(lp143
sg28
g46
sg30
g47
sg32
g8
sg24
g25
sg34
g12
sasg32
g8
sg33
I117
sg34
g12
sasg32
F0.125
sg33
I17
sg34
g3
sa(dp144
g2
g3
sg7
F0.7000000000000001
sg5
g6
sg17
g18
sg4
g3
sg9
F0.125
sg10
F0.1
sg11
g3
sg13
(lp145
(dp146
g2
g41
sg7
g8
sg5
g42
sg17
g18
sg4
g41
sg9
F1.0
sg10
F1.0
sg11
g12
sg13
(lp147
(dp148
g21
I30
sg7
g8
sg17
g23
sg33
I1018
sg11
g12
sg13
(lp149
sg28
g46
sg30
g47
sg32
g8
sg24
g25
sg34
g12
sasg32
g8
sg33
I118
sg34
g12
sasg32
F0.125
sg33
I18
sg34
g3
sa(dp150
g2
g3
sg7
F0.8
sg5
g6
sg17
g18
sg4
g3
sg9
F0.125
sg10
F0.1
sg11
g3
sg13
(lp151
(dp152
g2
g41
sg7
g8
sg5
g42
sg17
g18
sg4
g41
sg9
F1.0
sg10
F1.0
sg11
g12
sg13
(lp153
(dp154
g21
I30
sg7
g8
sg17
g23
sg33
I1019
sg11
g12
sg13
(lp155
sg28
g46
sg30
g47
sg32
g8
sg24
g25
sg34
g12
sasg32
g8
sg33
I119
sg34
g12
sasg32
F0.125
sg33
I19
sg34
g3
sa(dp156
g2
g3
sg7
F0.9
sg5
g6
sg17
g18
sg4
g3
sg9
F0.125
sg10
F0.1
sg11
g3
sg13
(lp157
(dp158
g2
g41
sg7
g8
sg5
g42
sg17
g18
sg4
g41
sg9
F1.0
sg10
F1.0
sg11
g12
sg13
(lp159
(dp160
g21
I30
sg7
g8
sg17
g23
sg33
I1020
sg11
g12
sg13
(lp161
sg28
g46
sg30
g47
sg32
g8
sg24
g25
sg34
g12
sasg32
g8
sg33
I120
sg34
g12
sasg32
F0.125
sg33
I20
sg34
g3
sa(dp162
g2
g3
sg7
F0.0
sg5
g6
sg17
g18
sg4
g3
sg9
F0.125
sg10
F0.1
sg11
g3
sg13
(lp163
(dp164
g2
g41
sg7
g8
sg5
g42
sg17
g18
sg4
g41
sg9
F1.0
sg10
F1.0
sg11
g12
sg13
(lp165
(dp166
g21
I30
sg7
g8
sg17
g23
sg33
I1021
sg11
g12
sg13
(lp167
sg28
g46
sg30
g47
sg32
g8
sg24
g25
sg34
g12
sasg32
g8
sg33
I121
sg34
g12
sasg32
F0.25
sg33
I21
sg34
g3
sa(dp168
g2
g3
sg7
F0.1
sg5
g6
sg17
g18
sg4
g3
sg9
F0.125
sg10
F0.1
sg11
g3
sg13
(lp169
(dp170
g2
g41
sg7
g8
sg5
g42
sg17
g18
sg4
g41
sg9
F1.0
sg10
F1.0
sg11
g12
sg13
(lp171
(dp172
g21
I30
sg7
g8
sg17
g23
sg33
I1022
sg11
g12
sg13
(lp173
sg28
g46
sg30
g47
sg32
g8
sg24
g25
sg34
g12
sasg32
g8
sg33
I122
sg34
g12
sasg32
F0.25
sg33
I22
sg34
g3
sa(dp174
g2
g3
sg7
F0.2
sg5
g6
sg17
g18
sg4
g3
sg9
F0.125
sg10
F0.1
sg11
g3
sg13
(lp175
(dp176
g2
g41
sg7
g8
sg5
g42
sg17
g18
sg4
g41
sg9
F1.0
sg10
F1.0
sg11
g12
sg13
(lp177
(dp178
g21
I30
sg7
g8
sg17
g23
sg33
I1023
sg11
g12
sg13
(lp179
sg28
g46
sg30
g47
sg32
g8
sg24
g25
sg34
g12
sasg32
g8
sg33
I123
sg34
g12
sasg32
F0.25
sg33
I23
sg34
g3
sa(dp180
g2
g3
sg7
F0.30000000000000004
sg5
g6
sg17
g18
sg4
g3
sg9
F0.125
sg10
F0.1
sg11
g3
sg13
(lp181
(dp182
g2
g41
sg7
g8
sg5
g42
sg17
g18
sg4
g41
sg9
F1.0
sg10
F1.0
sg11
g12
sg13
(lp183
(dp184
g21
I30
sg7
g8
sg17
g23
sg33
I1024
sg11
g12
sg13
(lp185
sg28
g46
sg30
g47
sg32
g8
sg24
g25
sg34
g12
sasg32
g8
sg33
I124
sg34
g12
sasg32
F0.25
sg33
I24
sg34
g3
sa(dp186
g2
g3
sg7
F0.4
sg5
g6
sg17
g18
sg4
g3
sg9
F0.125
sg10
F0.1
sg11
g3
sg13
(lp187
(dp188
g2
g41
sg7
g8
sg5
g42
sg17
g18
sg4
g41
sg9
F1.0
sg10
F1.0
sg11
g12
sg13
(lp189
(dp190
g21
I30
sg7
g8
sg17
g23
sg33
I1025
sg11
g12
sg13
(lp191
sg28
g46
sg30
g47
sg32
g8
sg24
g25
sg34
g12
sasg32
g8
sg33
I125
sg34
g12
sasg32
F0.25
sg33
I25
sg34
g3
sa(dp192
g2
g3
sg7
F0.5
sg5
g6
sg17
g18
sg4
g3
sg9
F0.125
sg10
F0.1
sg11
g3
sg13
(lp193
(dp194
g2
g41
sg7
g8
sg5
g42
sg17
g18
sg4
g41
sg9
F1.0
sg10
F1.0
sg11
g12
sg13
(lp195
(dp196
g21
I30
sg7
g8
sg17
g23
sg33
I1026
sg11
g12
sg13
(lp197
sg28
g46
sg30
g47
sg32
g8
sg24
g25
sg34
g12
sasg32
g8
sg33
I126
sg34
g12
sasg32
F0.25
sg33
I26
sg34
g3
sa(dp198
g2
g3
sg7
F0.6000000000000001
sg5
g6
sg17
g18
sg4
g3
sg9
F0.125
sg10
F0.1
sg11
g3
sg13
(lp199
(dp200
g2
g41
sg7
g8
sg5
g42
sg17
g18
sg4
g41
sg9
F1.0
sg10
F1.0
sg11
g12
sg13
(lp201
(dp202
g21
I30
sg7
g8
sg17
g23
sg33
I1027
sg11
g12
sg13
(lp203
sg28
g46
sg30
g47
sg32
g8
sg24
g25
sg34
g12
sasg32
g8
sg33
I127
sg34
g12
sasg32
F0.25
sg33
I27
sg34
g3
sa(dp204
g2
g3
sg7
F0.7000000000000001
sg5
g6
sg17
g18
sg4
g3
sg9
F0.125
sg10
F0.1
sg11
g3
sg13
(lp205
(dp206
g2
g41
sg7
g8
sg5
g42
sg17
g18
sg4
g41
sg9
F1.0
sg10
F1.0
sg11
g12
sg13
(lp207
(dp208
g21
I30
sg7
g8
sg17
g23
sg33
I1028
sg11
g12
sg13
(lp209
sg28
g46
sg30
g47
sg32
g8
sg24
g25
sg34
g12
sasg32
g8
sg33
I128
sg34
g12
sasg32
F0.25
sg33
I28
sg34
g3
sa(dp210
g2
g3
sg7
F0.8
sg5
g6
sg17
g18
sg4
g3
sg9
F0.125
sg10
F0.1
sg11
g3
sg13
(lp211
(dp212
g2
g41
sg7
g8
sg5
g42
sg17
g18
sg4
g41
sg9
F1.0
sg10
F1.0
sg11
g12
sg13
(lp213
(dp214
g21
I30
sg7
g8
sg17
g23
sg33
I1029
sg11
g12
sg13
(lp215
sg28
g46
sg30
g47
sg32
g8
sg24
g25
sg34
g12
sasg32
g8
sg33
I129
sg34
g12
sasg32
F0.25
sg33
I29
sg34
g3
sa(dp216
g2
g3
sg7
F0.9
sg5
g6
sg17
g18
sg4
g3
sg9
F0.125
sg10
F0.1
sg11
g3
sg13
(lp217
(dp218
g2
g41
sg7
g8
sg5
g42
sg17
g18
sg4
g41
sg9
F1.0
sg10
F1.0
sg11
g12
sg13
(lp219
(dp220
g21
I30
sg7
g8
sg17
g23
sg33
I1030
sg11
g12
sg13
(lp221
sg28
g46
sg30
g47
sg32
g8
sg24
g25
sg34
g12
sasg32
g8
sg33
I130
sg34
g12
sasg32
F0.25
sg33
I30
sg34
g3
sa(dp222
g2
g3
sg7
F0.0
sg5
g6
sg17
g18
sg4
g3
sg9
F0.125
sg10
F0.1
sg11
g3
sg13
(lp223
(dp224
g2
g41
sg7
g8
sg5
g42
sg17
g18
sg4
g41
sg9
F1.0
sg10
F1.0
sg11
g12
sg13
(lp225
(dp226
g21
I30
sg7
g8
sg17
g23
sg33
I1031
sg11
g12
sg13
(lp227
sg28
g46
sg30
g47
sg32
g8
sg24
g25
sg34
g12
sasg32
g8
sg33
I131
sg34
g12
sasg32
F0.375
sg33
I31
sg34
g3
sa(dp228
g2
g3
sg7
F0.1
sg5
g6
sg17
g18
sg4
g3
sg9
F0.125
sg10
F0.1
sg11
g3
sg13
(lp229
(dp230
g2
g41
sg7
g8
sg5
g42
sg17
g18
sg4
g41
sg9
F1.0
sg10
F1.0
sg11
g12
sg13
(lp231
(dp232
g21
I30
sg7
g8
sg17
g23
sg33
I1032
sg11
g12
sg13
(lp233
sg28
g46
sg30
g47
sg32
g8
sg24
g25
sg34
g12
sasg32
g8
sg33
I132
sg34
g12
sasg32
F0.375
sg33
I32
sg34
g3
sa(dp234
g2
g3
sg7
F0.2
sg5
g6
sg17
g18
sg4
g3
sg9
F0.125
sg10
F0.1
sg11
g3
sg13
(lp235
(dp236
g2
g41
sg7
g8
sg5
g42
sg17
g18
sg4
g41
sg9
F1.0
sg10
F1.0
sg11
g12
sg13
(lp237
(dp238
g21
I30
sg7
g8
sg17
g23
sg33
I1033
sg11
g12
sg13
(lp239
sg28
g46
sg30
g47
sg32
g8
sg24
g25
sg34
g12
sasg32
g8
sg33
I133
sg34
g12
sasg32
F0.375
sg33
I33
sg34
g3
sa(dp240
g2
g3
sg7
F0.30000000000000004
sg5
g6
sg17
g18
sg4
g3
sg9
F0.125
sg10
F0.1
sg11
g3
sg13
(lp241
(dp242
g2
g41
sg7
g8
sg5
g42
sg17
g18
sg4
g41
sg9
F1.0
sg10
F1.0
sg11
g12
sg13
(lp243
(dp244
g21
I30
sg7
g8
sg17
g23
sg33
I1034
sg11
g12
sg13
(lp245
sg28
g46
sg30
g47
sg32
g8
sg24
g25
sg34
g12
sasg32
g8
sg33
I134
sg34
g12
sasg32
F0.375
sg33
I34
sg34
g3
sa(dp246
g2
g3
sg7
F0.4
sg5
g6
sg17
g18
sg4
g3
sg9
F0.125
sg10
F0.1
sg11
g3
sg13
(lp247
(dp248
g2
g41
sg7
g8
sg5
g42
sg17
g18
sg4
g41
sg9
F1.0
sg10
F1.0
sg11
g12
sg13
(lp249
(dp250
g21
I30
sg7
g8
sg17
g23
sg33
I1035
sg11
g12
sg13
(lp251
sg28
g46
sg30
g47
sg32
g8
sg24
g25
sg34
g12
sasg32
g8
sg33
I135
sg34
g12
sasg32
F0.375
sg33
I35
sg34
g3
sa(dp252
g2
g3
sg7
F0.5
sg5
g6
sg17
g18
sg4
g3
sg9
F0.125
sg10
F0.1
sg11
g3
sg13
(lp253
(dp254
g2
g41
sg7
g8
sg5
g42
sg17
g18
sg4
g41
sg9
F1.0
sg10
F1.0
sg11
g12
sg13
(lp255
(dp256
g21
I30
sg7
g8
sg17
g23
sg33
I1036
sg11
g12
sg13
(lp257
sg28
g46
sg30
g47
sg32
g8
sg24
g25
sg34
g12
sasg32
g8
sg33
I136
sg34
g12
sasg32
F0.375
sg33
I36
sg34
g3
sa(dp258
g2
g3
sg7
F0.6000000000000001
sg5
g6
sg17
g18
sg4
g3
sg9
F0.125
sg10
F0.1
sg11
g3
sg13
(lp259
(dp260
g2
g41
sg7
g8
sg5
g42
sg17
g18
sg4
g41
sg9
F1.0
sg10
F1.0
sg11
g12
sg13
(lp261
(dp262
g21
I30
sg7
g8
sg17
g23
sg33
I1037
sg11
g12
sg13
(lp263
sg28
g46
sg30
g47
sg32
g8
sg24
g25
sg34
g12
sasg32
g8
sg33
I137
sg34
g12
sasg32
F0.375
sg33
I37
sg34
g3
sa(dp264
g2
g3
sg7
F0.7000000000000001
sg5
g6
sg17
g18
sg4
g3
sg9
F0.125
sg10
F0.1
sg11
g3
sg13
(lp265
(dp266
g2
g41
sg7
g8
sg5
g42
sg17
g18
sg4
g41
sg9
F1.0
sg10
F1.0
sg11
g12
sg13
(lp267
(dp268
g21
I30
sg7
g8
sg17
g23
sg33
I1038
sg11
g12
sg13
(lp269
sg28
g46
sg30
g47
sg32
g8
sg24
g25
sg34
g12
sasg32
g8
sg33
I138
sg34
g12
sasg32
F0.375
sg33
I38
sg34
g3
sa(dp270
g2
g3
sg7
F0.8
sg5
g6
sg17
g18
sg4
g3
sg9
F0.125
sg10
F0.1
sg11
g3
sg13
(lp271
(dp272
g2
g41
sg7
g8
sg5
g42
sg17
g18
sg4
g41
sg9
F1.0
sg10
F1.0
sg11
g12
sg13
(lp273
(dp274
g21
I30
sg7
g8
sg17
g23
sg33
I1039
sg11
g12
sg13
(lp275
sg28
g46
sg30
g47
sg32
g8
sg24
g25
sg34
g12
sasg32
g8
sg33
I139
sg34
g12
sasg32
F0.375
sg33
I39
sg34
g3
sa(dp276
g2
g3
sg7
F0.9
sg5
g6
sg17
g18
sg4
g3
sg9
F0.125
sg10
F0.1
sg11
g3
sg13
(lp277
(dp278
g2
g41
sg7
g8
sg5
g42
sg17
g18
sg4
g41
sg9
F1.0
sg10
F1.0
sg11
g12
sg13
(lp279
(dp280
g21
I30
sg7
g8
sg17
g23
sg33
I1040
sg11
g12
sg13
(lp281
sg28
g46
sg30
g47
sg32
g8
sg24
g25
sg34
g12
sasg32
g8
sg33
I140
sg34
g12
sasg32
F0.375
sg33
I40
sg34
g3
sa(dp282
g2
g3
sg7
F0.0
sg5
g6
sg17
g18
sg4
g3
sg9
F0.125
sg10
F0.1
sg11
g3
sg13
(lp283
(dp284
g2
g41
sg7
g8
sg5
g42
sg17
g18
sg4
g41
sg9
F1.0
sg10
F1.0
sg11
g12
sg13
(lp285
(dp286
g21
I30
sg7
g8
sg17
g23
sg33
I1041
sg11
g12
sg13
(lp287
sg28
g46
sg30
g47
sg32
g8
sg24
g25
sg34
g12
sasg32
g8
sg33
I141
sg34
g12
sasg32
F0.5
sg33
I41
sg34
g3
sa(dp288
g2
g3
sg7
F0.1
sg5
g6
sg17
g18
sg4
g3
sg9
F0.125
sg10
F0.1
sg11
g3
sg13
(lp289
(dp290
g2
g41
sg7
g8
sg5
g42
sg17
g18
sg4
g41
sg9
F1.0
sg10
F1.0
sg11
g12
sg13
(lp291
(dp292
g21
I30
sg7
g8
sg17
g23
sg33
I1042
sg11
g12
sg13
(lp293
sg28
g46
sg30
g47
sg32
g8
sg24
g25
sg34
g12
sasg32
g8
sg33
I142
sg34
g12
sasg32
F0.5
sg33
I42
sg34
g3
sa(dp294
g2
g3
sg7
F0.2
sg5
g6
sg17
g18
sg4
g3
sg9
F0.125
sg10
F0.1
sg11
g3
sg13
(lp295
(dp296
g2
g41
sg7
g8
sg5
g42
sg17
g18
sg4
g41
sg9
F1.0
sg10
F1.0
sg11
g12
sg13
(lp297
(dp298
g21
I30
sg7
g8
sg17
g23
sg33
I1043
sg11
g12
sg13
(lp299
sg28
g46
sg30
g47
sg32
g8
sg24
g25
sg34
g12
sasg32
g8
sg33
I143
sg34
g12
sasg32
F0.5
sg33
I43
sg34
g3
sa(dp300
g2
g3
sg7
F0.30000000000000004
sg5
g6
sg17
g18
sg4
g3
sg9
F0.125
sg10
F0.1
sg11
g3
sg13
(lp301
(dp302
g2
g41
sg7
g8
sg5
g42
sg17
g18
sg4
g41
sg9
F1.0
sg10
F1.0
sg11
g12
sg13
(lp303
(dp304
g21
I30
sg7
g8
sg17
g23
sg33
I1044
sg11
g12
sg13
(lp305
sg28
g46
sg30
g47
sg32
g8
sg24
g25
sg34
g12
sasg32
g8
sg33
I144
sg34
g12
sasg32
F0.5
sg33
I44
sg34
g3
sa(dp306
g2
g3
sg7
F0.4
sg5
g6
sg17
g18
sg4
g3
sg9
F0.125
sg10
F0.1
sg11
g3
sg13
(lp307
(dp308
g2
g41
sg7
g8
sg5
g42
sg17
g18
sg4
g41
sg9
F1.0
sg10
F1.0
sg11
g12
sg13
(lp309
(dp310
g21
I30
sg7
g8
sg17
g23
sg33
I1045
sg11
g12
sg13
(lp311
sg28
g46
sg30
g47
sg32
g8
sg24
g25
sg34
g12
sasg32
g8
sg33
I145
sg34
g12
sasg32
F0.5
sg33
I45
sg34
g3
sa(dp312
g2
g3
sg7
F0.5
sg5
g6
sg17
g18
sg4
g3
sg9
F0.125
sg10
F0.1
sg11
g3
sg13
(lp313
(dp314
g2
g41
sg7
g8
sg5
g42
sg17
g18
sg4
g41
sg9
F1.0
sg10
F1.0
sg11
g12
sg13
(lp315
(dp316
g21
I30
sg7
g8
sg17
g23
sg33
I1046
sg11
g12
sg13
(lp317
sg28
g46
sg30
g47
sg32
g8
sg24
g25
sg34
g12
sasg32
g8
sg33
I146
sg34
g12
sasg32
F0.5
sg33
I46
sg34
g3
sa(dp318
g2
g3
sg7
F0.6000000000000001
sg5
g6
sg17
g18
sg4
g3
sg9
F0.125
sg10
F0.1
sg11
g3
sg13
(lp319
(dp320
g2
g41
sg7
g8
sg5
g42
sg17
g18
sg4
g41
sg9
F1.0
sg10
F1.0
sg11
g12
sg13
(lp321
(dp322
g21
I30
sg7
g8
sg17
g23
sg33
I1047
sg11
g12
sg13
(lp323
sg28
g46
sg30
g47
sg32
g8
sg24
g25
sg34
g12
sasg32
g8
sg33
I147
sg34
g12
sasg32
F0.5
sg33
I47
sg34
g3
sa(dp324
g2
g3
sg7
F0.7000000000000001
sg5
g6
sg17
g18
sg4
g3
sg9
F0.125
sg10
F0.1
sg11
g3
sg13
(lp325
(dp326
g2
g41
sg7
g8
sg5
g42
sg17
g18
sg4
g41
sg9
F1.0
sg10
F1.0
sg11
g12
sg13
(lp327
(dp328
g21
I30
sg7
g8
sg17
g23
sg33
I1048
sg11
g12
sg13
(lp329
sg28
g46
sg30
g47
sg32
g8
sg24
g25
sg34
g12
sasg32
g8
sg33
I148
sg34
g12
sasg32
F0.5
sg33
I48
sg34
g3
sa(dp330
g2
g3
sg7
F0.8
sg5
g6
sg17
g18
sg4
g3
sg9
F0.125
sg10
F0.1
sg11
g3
sg13
(lp331
(dp332
g2
g41
sg7
g8
sg5
g42
sg17
g18
sg4
g41
sg9
F1.0
sg10
F1.0
sg11
g12
sg13
(lp333
(dp334
g21
I30
sg7
g8
sg17
g23
sg33
I1049
sg11
g12
sg13
(lp335
sg28
g46
sg30
g47
sg32
g8
sg24
g25
sg34
g12
sasg32
g8
sg33
I149
sg34
g12
sasg32
F0.5
sg33
I49
sg34
g3
sa(dp336
g2
g3
sg7
F0.9
sg5
g6
sg17
g18
sg4
g3
sg9
F0.125
sg10
F0.1
sg11
g3
sg13
(lp337
(dp338
g2
g41
sg7
g8
sg5
g42
sg17
g18
sg4
g41
sg9
F1.0
sg10
F1.0
sg11
g12
sg13
(lp339
(dp340
g21
I30
sg7
g8
sg17
g23
sg33
I1050
sg11
g12
sg13
(lp341
sg28
g46
sg30
g47
sg32
g8
sg24
g25
sg34
g12
sasg32
g8
sg33
I150
sg34
g12
sasg32
F0.5
sg33
I50
sg34
g3
sa(dp342
g2
g3
sg7
F0.0
sg5
g6
sg17
g18
sg4
g3
sg9
F0.125
sg10
F0.1
sg11
g3
sg13
(lp343
(dp344
g2
g41
sg7
g8
sg5
g42
sg17
g18
sg4
g41
sg9
F1.0
sg10
F1.0
sg11
g12
sg13
(lp345
(dp346
g21
I30
sg7
g8
sg17
g23
sg33
I1051
sg11
g12
sg13
(lp347
sg28
g46
sg30
g47
sg32
g8
sg24
g25
sg34
g12
sasg32
g8
sg33
I151
sg34
g12
sasg32
F0.625
sg33
I51
sg34
g3
sa(dp348
g2
g3
sg7
F0.1
sg5
g6
sg17
g18
sg4
g3
sg9
F0.125
sg10
F0.1
sg11
g3
sg13
(lp349
(dp350
g2
g41
sg7
g8
sg5
g42
sg17
g18
sg4
g41
sg9
F1.0
sg10
F1.0
sg11
g12
sg13
(lp351
(dp352
g21
I30
sg7
g8
sg17
g23
sg33
I1052
sg11
g12
sg13
(lp353
sg28
g46
sg30
g47
sg32
g8
sg24
g25
sg34
g12
sasg32
g8
sg33
I152
sg34
g12
sasg32
F0.625
sg33
I52
sg34
g3
sa(dp354
g2
g3
sg7
F0.2
sg5
g6
sg17
g18
sg4
g3
sg9
F0.125
sg10
F0.1
sg11
g3
sg13
(lp355
(dp356
g2
g41
sg7
g8
sg5
g42
sg17
g18
sg4
g41
sg9
F1.0
sg10
F1.0
sg11
g12
sg13
(lp357
(dp358
g21
I30
sg7
g8
sg17
g23
sg33
I1053
sg11
g12
sg13
(lp359
sg28
g46
sg30
g47
sg32
g8
sg24
g25
sg34
g12
sasg32
g8
sg33
I153
sg34
g12
sasg32
F0.625
sg33
I53
sg34
g3
sa(dp360
g2
g3
sg7
F0.30000000000000004
sg5
g6
sg17
g18
sg4
g3
sg9
F0.125
sg10
F0.1
sg11
g3
sg13
(lp361
(dp362
g2
g41
sg7
g8
sg5
g42
sg17
g18
sg4
g41
sg9
F1.0
sg10
F1.0
sg11
g12
sg13
(lp363
(dp364
g21
I30
sg7
g8
sg17
g23
sg33
I1054
sg11
g12
sg13
(lp365
sg28
g46
sg30
g47
sg32
g8
sg24
g25
sg34
g12
sasg32
g8
sg33
I154
sg34
g12
sasg32
F0.625
sg33
I54
sg34
g3
sa(dp366
g2
g3
sg7
F0.4
sg5
g6
sg17
g18
sg4
g3
sg9
F0.125
sg10
F0.1
sg11
g3
sg13
(lp367
(dp368
g2
g41
sg7
g8
sg5
g42
sg17
g18
sg4
g41
sg9
F1.0
sg10
F1.0
sg11
g12
sg13
(lp369
(dp370
g21
I30
sg7
g8
sg17
g23
sg33
I1055
sg11
g12
sg13
(lp371
sg28
g46
sg30
g47
sg32
g8
sg24
g25
sg34
g12
sasg32
g8
sg33
I155
sg34
g12
sasg32
F0.625
sg33
I55
sg34
g3
sa(dp372
g2
g3
sg7
F0.5
sg5
g6
sg17
g18
sg4
g3
sg9
F0.125
sg10
F0.1
sg11
g3
sg13
(lp373
(dp374
g2
g41
sg7
g8
sg5
g42
sg17
g18
sg4
g41
sg9
F1.0
sg10
F1.0
sg11
g12
sg13
(lp375
(dp376
g21
I30
sg7
g8
sg17
g23
sg33
I1056
sg11
g12
sg13
(lp377
sg28
g46
sg30
g47
sg32
g8
sg24
g25
sg34
g12
sasg32
g8
sg33
I156
sg34
g12
sasg32
F0.625
sg33
I56
sg34
g3
sa(dp378
g2
g3
sg7
F0.6000000000000001
sg5
g6
sg17
g18
sg4
g3
sg9
F0.125
sg10
F0.1
sg11
g3
sg13
(lp379
(dp380
g2
g41
sg7
g8
sg5
g42
sg17
g18
sg4
g41
sg9
F1.0
sg10
F1.0
sg11
g12
sg13
(lp381
(dp382
g21
I30
sg7
g8
sg17
g23
sg33
I1057
sg11
g12
sg13
(lp383
sg28
g46
sg30
g47
sg32
g8
sg24
g25
sg34
g12
sasg32
g8
sg33
I157
sg34
g12
sasg32
F0.625
sg33
I57
sg34
g3
sa(dp384
g2
g3
sg7
F0.7000000000000001
sg5
g6
sg17
g18
sg4
g3
sg9
F0.125
sg10
F0.1
sg11
g3
sg13
(lp385
(dp386
g2
g41
sg7
g8
sg5
g42
sg17
g18
sg4
g41
sg9
F1.0
sg10
F1.0
sg11
g12
sg13
(lp387
(dp388
g21
I30
sg7
g8
sg17
g23
sg33
I1058
sg11
g12
sg13
(lp389
sg28
g46
sg30
g47
sg32
g8
sg24
g25
sg34
g12
sasg32
g8
sg33
I158
sg34
g12
sasg32
F0.625
sg33
I58
sg34
g3
sa(dp390
g2
g3
sg7
F0.8
sg5
g6
sg17
g18
sg4
g3
sg9
F0.125
sg10
F0.1
sg11
g3
sg13
(lp391
(dp392
g2
g41
sg7
g8
sg5
g42
sg17
g18
sg4
g41
sg9
F1.0
sg10
F1.0
sg11
g12
sg13
(lp393
(dp394
g21
I30
sg7
g8
sg17
g23
sg33
I1059
sg11
g12
sg13
(lp395
sg28
g46
sg30
g47
sg32
g8
sg24
g25
sg34
g12
sasg32
g8
sg33
I159
sg34
g12
sasg32
F0.625
sg33
I59
sg34
g3
sa(dp396
g2
g3
sg7
F0.9
sg5
g6
sg17
g18
sg4
g3
sg9
F0.125
sg10
F0.1
sg11
g3
sg13
(lp397
(dp398
g2
g41
sg7
g8
sg5
g42
sg17
g18
sg4
g41
sg9
F1.0
sg10
F1.0
sg11
g12
sg13
(lp399
(dp400
g21
I30
sg7
g8
sg17
g23
sg33
I1060
sg11
g12
sg13
(lp401
sg28
g46
sg30
g47
sg32
g8
sg24
g25
sg34
g12
sasg32
g8
sg33
I160
sg34
g12
sasg32
F0.625
sg33
I60
sg34
g3
sa(dp402
g2
g3
sg7
F0.0
sg5
g6
sg17
g18
sg4
g3
sg9
F0.125
sg10
F0.1
sg11
g3
sg13
(lp403
(dp404
g2
g41
sg7
g8
sg5
g42
sg17
g18
sg4
g41
sg9
F1.0
sg10
F1.0
sg11
g12
sg13
(lp405
(dp406
g21
I30
sg7
g8
sg17
g23
sg33
I1061
sg11
g12
sg13
(lp407
sg28
g46
sg30
g47
sg32
g8
sg24
g25
sg34
g12
sasg32
g8
sg33
I161
sg34
g12
sasg32
F0.75
sg33
I61
sg34
g3
sa(dp408
g2
g3
sg7
F0.1
sg5
g6
sg17
g18
sg4
g3
sg9
F0.125
sg10
F0.1
sg11
g3
sg13
(lp409
(dp410
g2
g41
sg7
g8
sg5
g42
sg17
g18
sg4
g41
sg9
F1.0
sg10
F1.0
sg11
g12
sg13
(lp411
(dp412
g21
I30
sg7
g8
sg17
g23
sg33
I1062
sg11
g12
sg13
(lp413
sg28
g46
sg30
g47
sg32
g8
sg24
g25
sg34
g12
sasg32
g8
sg33
I162
sg34
g12
sasg32
F0.75
sg33
I62
sg34
g3
sa(dp414
g2
g3
sg7
F0.2
sg5
g6
sg17
g18
sg4
g3
sg9
F0.125
sg10
F0.1
sg11
g3
sg13
(lp415
(dp416
g2
g41
sg7
g8
sg5
g42
sg17
g18
sg4
g41
sg9
F1.0
sg10
F1.0
sg11
g12
sg13
(lp417
(dp418
g21
I30
sg7
g8
sg17
g23
sg33
I1063
sg11
g12
sg13
(lp419
sg28
g46
sg30
g47
sg32
g8
sg24
g25
sg34
g12
sasg32
g8
sg33
I163
sg34
g12
sasg32
F0.75
sg33
I63
sg34
g3
sa(dp420
g2
g3
sg7
F0.30000000000000004
sg5
g6
sg17
g18
sg4
g3
sg9
F0.125
sg10
F0.1
sg11
g3
sg13
(lp421
(dp422
g2
g41
sg7
g8
sg5
g42
sg17
g18
sg4
g41
sg9
F1.0
sg10
F1.0
sg11
g12
sg13
(lp423
(dp424
g21
I30
sg7
g8
sg17
g23
sg33
I1064
sg11
g12
sg13
(lp425
sg28
g46
sg30
g47
sg32
g8
sg24
g25
sg34
g12
sasg32
g8
sg33
I164
sg34
g12
sasg32
F0.75
sg33
I64
sg34
g3
sa(dp426
g2
g3
sg7
F0.4
sg5
g6
sg17
g18
sg4
g3
sg9
F0.125
sg10
F0.1
sg11
g3
sg13
(lp427
(dp428
g2
g41
sg7
g8
sg5
g42
sg17
g18
sg4
g41
sg9
F1.0
sg10
F1.0
sg11
g12
sg13
(lp429
(dp430
g21
I30
sg7
g8
sg17
g23
sg33
I1065
sg11
g12
sg13
(lp431
sg28
g46
sg30
g47
sg32
g8
sg24
g25
sg34
g12
sasg32
g8
sg33
I165
sg34
g12
sasg32
F0.75
sg33
I65
sg34
g3
sa(dp432
g2
g3
sg7
F0.5
sg5
g6
sg17
g18
sg4
g3
sg9
F0.125
sg10
F0.1
sg11
g3
sg13
(lp433
(dp434
g2
g41
sg7
g8
sg5
g42
sg17
g18
sg4
g41
sg9
F1.0
sg10
F1.0
sg11
g12
sg13
(lp435
(dp436
g21
I30
sg7
g8
sg17
g23
sg33
I1066
sg11
g12
sg13
(lp437
sg28
g46
sg30
g47
sg32
g8
sg24
g25
sg34
g12
sasg32
g8
sg33
I166
sg34
g12
sasg32
F0.75
sg33
I66
sg34
g3
sa(dp438
g2
g3
sg7
F0.6000000000000001
sg5
g6
sg17
g18
sg4
g3
sg9
F0.125
sg10
F0.1
sg11
g3
sg13
(lp439
(dp440
g2
g41
sg7
g8
sg5
g42
sg17
g18
sg4
g41
sg9
F1.0
sg10
F1.0
sg11
g12
sg13
(lp441
(dp442
g21
I30
sg7
g8
sg17
g23
sg33
I1067
sg11
g12
sg13
(lp443
sg28
g46
sg30
g47
sg32
g8
sg24
g25
sg34
g12
sasg32
g8
sg33
I167
sg34
g12
sasg32
F0.75
sg33
I67
sg34
g3
sa(dp444
g2
g3
sg7
F0.7000000000000001
sg5
g6
sg17
g18
sg4
g3
sg9
F0.125
sg10
F0.1
sg11
g3
sg13
(lp445
(dp446
g2
g41
sg7
g8
sg5
g42
sg17
g18
sg4
g41
sg9
F1.0
sg10
F1.0
sg11
g12
sg13
(lp447
(dp448
g21
I30
sg7
g8
sg17
g23
sg33
I1068
sg11
g12
sg13
(lp449
sg28
g46
sg30
g47
sg32
g8
sg24
g25
sg34
g12
sasg32
g8
sg33
I168
sg34
g12
sasg32
F0.75
sg33
I68
sg34
g3
sa(dp450
g2
g3
sg7
F0.8
sg5
g6
sg17
g18
sg4
g3
sg9
F0.125
sg10
F0.1
sg11
g3
sg13
(lp451
(dp452
g2
g41
sg7
g8
sg5
g42
sg17
g18
sg4
g41
sg9
F1.0
sg10
F1.0
sg11
g12
sg13
(lp453
(dp454
g21
I30
sg7
g8
sg17
g23
sg33
I1069
sg11
g12
sg13
(lp455
sg28
g46
sg30
g47
sg32
g8
sg24
g25
sg34
g12
sasg32
g8
sg33
I169
sg34
g12
sasg32
F0.75
sg33
I69
sg34
g3
sa(dp456
g2
g3
sg7
F0.9
sg5
g6
sg17
g18
sg4
g3
sg9
F0.125
sg10
F0.1
sg11
g3
sg13
(lp457
(dp458
g2
g41
sg7
g8
sg5
g42
sg17
g18
sg4
g41
sg9
F1.0
sg10
F1.0
sg11
g12
sg13
(lp459
(dp460
g21
I30
sg7
g8
sg17
g23
sg33
I1070
sg11
g12
sg13
(lp461
sg28
g46
sg30
g47
sg32
g8
sg24
g25
sg34
g12
sasg32
g8
sg33
I170
sg34
g12
sasg32
F0.75
sg33
I70
sg34
g3
sa(dp462
g2
g3
sg7
F0.0
sg5
g6
sg17
g18
sg4
g3
sg9
F0.125
sg10
F0.1
sg11
g3
sg13
(lp463
(dp464
g2
g41
sg7
g8
sg5
g42
sg17
g18
sg4
g41
sg9
F1.0
sg10
F1.0
sg11
g12
sg13
(lp465
(dp466
g21
I30
sg7
g8
sg17
g23
sg33
I1071
sg11
g12
sg13
(lp467
sg28
g46
sg30
g47
sg32
g8
sg24
g25
sg34
g12
sasg32
g8
sg33
I171
sg34
g12
sasg32
F0.875
sg33
I71
sg34
g3
sa(dp468
g2
g3
sg7
F0.1
sg5
g6
sg17
g18
sg4
g3
sg9
F0.125
sg10
F0.1
sg11
g3
sg13
(lp469
(dp470
g2
g41
sg7
g8
sg5
g42
sg17
g18
sg4
g41
sg9
F1.0
sg10
F1.0
sg11
g12
sg13
(lp471
(dp472
g21
I30
sg7
g8
sg17
g23
sg33
I1072
sg11
g12
sg13
(lp473
sg28
g46
sg30
g47
sg32
g8
sg24
g25
sg34
g12
sasg32
g8
sg33
I172
sg34
g12
sasg32
F0.875
sg33
I72
sg34
g3
sa(dp474
g2
g3
sg7
F0.2
sg5
g6
sg17
g18
sg4
g3
sg9
F0.125
sg10
F0.1
sg11
g3
sg13
(lp475
(dp476
g2
g41
sg7
g8
sg5
g42
sg17
g18
sg4
g41
sg9
F1.0
sg10
F1.0
sg11
g12
sg13
(lp477
(dp478
g21
I30
sg7
g8
sg17
g23
sg33
I1073
sg11
g12
sg13
(lp479
sg28
g46
sg30
g47
sg32
g8
sg24
g25
sg34
g12
sasg32
g8
sg33
I173
sg34
g12
sasg32
F0.875
sg33
I73
sg34
g3
sa(dp480
g2
g3
sg7
F0.30000000000000004
sg5
g6
sg17
g18
sg4
g3
sg9
F0.125
sg10
F0.1
sg11
g3
sg13
(lp481
(dp482
g2
g41
sg7
g8
sg5
g42
sg17
g18
sg4
g41
sg9
F1.0
sg10
F1.0
sg11
g12
sg13
(lp483
(dp484
g21
I30
sg7
g8
sg17
g23
sg33
I1074
sg11
g12
sg13
(lp485
sg28
g46
sg30
g47
sg32
g8
sg24
g25
sg34
g12
sasg32
g8
sg33
I174
sg34
g12
sasg32
F0.875
sg33
I74
sg34
g3
sa(dp486
g2
g3
sg7
F0.4
sg5
g6
sg17
g18
sg4
g3
sg9
F0.125
sg10
F0.1
sg11
g3
sg13
(lp487
(dp488
g2
g41
sg7
g8
sg5
g42
sg17
g18
sg4
g41
sg9
F1.0
sg10
F1.0
sg11
g12
sg13
(lp489
(dp490
g21
I30
sg7
g8
sg17
g23
sg33
I1075
sg11
g12
sg13
(lp491
sg28
g46
sg30
g47
sg32
g8
sg24
g25
sg34
g12
sasg32
g8
sg33
I175
sg34
g12
sasg32
F0.875
sg33
I75
sg34
g3
sa(dp492
g2
g3
sg7
F0.5
sg5
g6
sg17
g18
sg4
g3
sg9
F0.125
sg10
F0.1
sg11
g3
sg13
(lp493
(dp494
g2
g41
sg7
g8
sg5
g42
sg17
g18
sg4
g41
sg9
F1.0
sg10
F1.0
sg11
g12
sg13
(lp495
(dp496
g21
I30
sg7
g8
sg17
g23
sg33
I1076
sg11
g12
sg13
(lp497
sg28
g46
sg30
g47
sg32
g8
sg24
g25
sg34
g12
sasg32
g8
sg33
I176
sg34
g12
sasg32
F0.875
sg33
I76
sg34
g3
sa(dp498
g2
g3
sg7
F0.6000000000000001
sg5
g6
sg17
g18
sg4
g3
sg9
F0.125
sg10
F0.1
sg11
g3
sg13
(lp499
(dp500
g2
g41
sg7
g8
sg5
g42
sg17
g18
sg4
g41
sg9
F1.0
sg10
F1.0
sg11
g12
sg13
(lp501
(dp502
g21
I30
sg7
g8
sg17
g23
sg33
I1077
sg11
g12
sg13
(lp503
sg28
g46
sg30
g47
sg32
g8
sg24
g25
sg34
g12
sasg32
g8
sg33
I177
sg34
g12
sasg32
F0.875
sg33
I77
sg34
g3
sa(dp504
g2
g3
sg7
F0.7000000000000001
sg5
g6
sg17
g18
sg4
g3
sg9
F0.125
sg10
F0.1
sg11
g3
sg13
(lp505
(dp506
g2
g41
sg7
g8
sg5
g42
sg17
g18
sg4
g41
sg9
F1.0
sg10
F1.0
sg11
g12
sg13
(lp507
(dp508
g21
I30
sg7
g8
sg17
g23
sg33
I1078
sg11
g12
sg13
(lp509
sg28
g46
sg30
g47
sg32
g8
sg24
g25
sg34
g12
sasg32
g8
sg33
I178
sg34
g12
sasg32
F0.875
sg33
I78
sg34
g3
sa(dp510
g2
g3
sg7
F0.8
sg5
g6
sg17
g18
sg4
g3
sg9
F0.125
sg10
F0.1
sg11
g3
sg13
(lp511
(dp512
g2
g41
sg7
g8
sg5
g42
sg17
g18
sg4
g41
sg9
F1.0
sg10
F1.0
sg11
g12
sg13
(lp513
(dp514
g21
I30
sg7
g8
sg17
g23
sg33
I1079
sg11
g12
sg13
(lp515
sg28
g46
sg30
g47
sg32
g8
sg24
g25
sg34
g12
sasg32
g8
sg33
I179
sg34
g12
sasg32
F0.875
sg33
I79
sg34
g3
sa(dp516
g2
g3
sg7
F0.9
sg5
g6
sg17
g18
sg4
g3
sg9
F0.125
sg10
F0.1
sg11
g3
sg13
(lp517
(dp518
g2
g41
sg7
g8
sg5
g42
sg17
g18
sg4
g41
sg9
F1.0
sg10
F1.0
sg11
g12
sg13
(lp519
(dp520
g21
I30
sg7
g8
sg17
g23
sg33
I1080
sg11
g12
sg13
(lp521
sg28
g46
sg30
g47
sg32
g8
sg24
g25
sg34
g12
sasg32
g8
sg33
I180
sg34
g12
sasg32
F0.875
sg33
I80
sg34
g3
sasg32
S'bottom'
p522
sg33
I999
sg34
g12
sa.