(lp0
(dp1
S'width_type'
p2
S'relative'
p3
sS'height_type'
p4
g3
sS'color'
p5
S''
p6
sS'position_horizontal'
p7
S'center'
p8
sS'height'
p9
F0.1
sS'width'
p10
I1
sS'position_horizontal_type'
p11
S'aligned'
p12
sS'stimuluses'
p13
(lp14
(dp15
g2
g3
sg4
g3
sg5
S'#3b3b3b'
p16
sS'stimulus_type'
p17
S'rectangle'
p18
sg7
g8
sg9
F0.9
sg10
I1
sg11
g12
sg13
(lp19
(dp20
S'font_size'
p21
I20
sg7
S'center'
p22
sg17
S'text'
p23
sS'font_family'
p24
S'Serif'
p25
sg11
S'aligned'
p26
sg13
(lp27
sS'font_color'
p28
S'#ffffff'
p29
sS'message'
p30
Vtekst
p31
sS'position_vertical'
p32
g8
sS'id'
p33
I909
sS'position_vertical_type'
p34
g12
sasg32
g8
sg33
I889
sg34
g12
sasg32
S'top'
p35
sg33
I888
sg34
g12
sa(dp36
g2
g3
sg4
g3
sg5
g6
sg7
g8
sg9
F0.9
sg10
I1
sg11
g12
sg13
(lp37
(dp38
g2
g3
sg7
F0.0
sg5
g6
sg17
g18
sg4
g3
sg9
F0.16666666666666666
sg10
F0.125
sg11
g3
sg13
(lp39
(dp40
g2
S'relative'
p41
sg7
g8
sg5
S'#000000'
p42
sg17
g18
sg4
g41
sg9
F1.0
sg10
F1.0
sg11
g12
sg13
(lp43
(dp44
g21
I30
sg7
g8
sg17
g23
sg33
I1001
sg11
g12
sg13
(lp45
sg28
S'#ffffff'
p46
sg30
S'A'
p47
sg32
g8
sg24
g25
sg34
g12
sasg32
g8
sg33
I101
sg34
g12
sasg32
F0.0
sg33
I1
sg34
g3
sa(dp48
g2
g3
sg7
F0.125
sg5
g6
sg17
g18
sg4
g3
sg9
F0.16666666666666666
sg10
F0.125
sg11
g3
sg13
(lp49
(dp50
g2
g41
sg7
g8
sg5
g42
sg17
g18
sg4
g41
sg9
F1.0
sg10
F1.0
sg11
g12
sg13
(lp51
(dp52
g21
I30
sg7
g8
sg17
g23
sg33
I1002
sg11
g12
sg13
(lp53
sg28
g46
sg30
S'B'
p54
sg32
g8
sg24
g25
sg34
g12
sasg32
g8
sg33
I102
sg34
g12
sasg32
F0.0
sg33
I2
sg34
g3
sa(dp55
g2
g3
sg7
F0.25
sg5
g6
sg17
g18
sg4
g3
sg9
F0.16666666666666666
sg10
F0.125
sg11
g3
sg13
(lp56
(dp57
g2
g41
sg7
g8
sg5
g42
sg17
g18
sg4
g41
sg9
F1.0
sg10
F1.0
sg11
g12
sg13
(lp58
(dp59
g21
I30
sg7
g8
sg17
g23
sg33
I1003
sg11
g12
sg13
(lp60
sg28
g46
sg30
S'C'
p61
sg32
g8
sg24
g25
sg34
g12
sasg32
g8
sg33
I103
sg34
g12
sasg32
F0.0
sg33
I3
sg34
g3
sa(dp62
g2
g3
sg7
F0.375
sg5
g6
sg17
g18
sg4
g3
sg9
F0.16666666666666666
sg10
F0.125
sg11
g3
sg13
(lp63
(dp64
g2
g41
sg7
g8
sg5
g42
sg17
g18
sg4
g41
sg9
F1.0
sg10
F1.0
sg11
g12
sg13
(lp65
(dp66
g21
I30
sg7
g8
sg17
g23
sg33
I1004
sg11
g12
sg13
(lp67
sg28
g46
sg30
S'D'
p68
sg32
g8
sg24
g25
sg34
g12
sasg32
g8
sg33
I104
sg34
g12
sasg32
F0.0
sg33
I4
sg34
g3
sa(dp69
g2
g3
sg7
F0.5
sg5
g6
sg17
g18
sg4
g3
sg9
F0.16666666666666666
sg10
F0.125
sg11
g3
sg13
(lp70
(dp71
g2
g41
sg7
g8
sg5
g42
sg17
g18
sg4
g41
sg9
F1.0
sg10
F1.0
sg11
g12
sg13
(lp72
(dp73
g21
I30
sg7
g8
sg17
g23
sg33
I1005
sg11
g12
sg13
(lp74
sg28
g46
sg30
S'E'
p75
sg32
g8
sg24
g25
sg34
g12
sasg32
g8
sg33
I105
sg34
g12
sasg32
F0.0
sg33
I5
sg34
g3
sa(dp76
g2
g3
sg7
F0.625
sg5
g6
sg17
g18
sg4
g3
sg9
F0.16666666666666666
sg10
F0.125
sg11
g3
sg13
(lp77
(dp78
g2
g41
sg7
g8
sg5
g42
sg17
g18
sg4
g41
sg9
F1.0
sg10
F1.0
sg11
g12
sg13
(lp79
(dp80
g21
I30
sg7
g8
sg17
g23
sg33
I1006
sg11
g12
sg13
(lp81
sg28
g46
sg30
S'F'
p82
sg32
g8
sg24
g25
sg34
g12
sasg32
g8
sg33
I106
sg34
g12
sasg32
F0.0
sg33
I6
sg34
g3
sa(dp83
g2
g3
sg7
F0.75
sg5
g6
sg17
g18
sg4
g3
sg9
F0.16666666666666666
sg10
F0.125
sg11
g3
sg13
(lp84
(dp85
g2
g41
sg7
g8
sg5
g42
sg17
g18
sg4
g41
sg9
F1.0
sg10
F1.0
sg11
g12
sg13
(lp86
(dp87
g21
I30
sg7
g8
sg17
g23
sg33
I1007
sg11
g12
sg13
(lp88
sg28
g46
sg30
S'1'
p89
sg32
g8
sg24
g25
sg34
g12
sasg32
g8
sg33
I107
sg34
g12
sasg32
F0.0
sg33
I7
sg34
g3
sa(dp90
g2
g3
sg7
F0.875
sg5
g6
sg17
g18
sg4
g3
sg9
F0.16666666666666666
sg10
F0.125
sg11
g3
sg13
(lp91
(dp92
g2
g41
sg7
g8
sg5
g42
sg17
g18
sg4
g41
sg9
F1.0
sg10
F1.0
sg11
g12
sg13
(lp93
(dp94
g21
I30
sg7
g8
sg17
g23
sg33
I1008
sg11
g12
sg13
(lp95
sg28
g46
sg30
S'2'
p96
sg32
g8
sg24
g25
sg34
g12
sasg32
g8
sg33
I108
sg34
g12
sasg32
F0.0
sg33
I8
sg34
g3
sa(dp97
g2
g3
sg7
F0.0
sg5
g6
sg17
g18
sg4
g3
sg9
F0.16666666666666666
sg10
F0.125
sg11
g3
sg13
(lp98
(dp99
g2
g41
sg7
g8
sg5
g42
sg17
g18
sg4
g41
sg9
F1.0
sg10
F1.0
sg11
g12
sg13
(lp100
(dp101
g21
I30
sg7
g8
sg17
g23
sg33
I1009
sg11
g12
sg13
(lp102
sg28
g46
sg30
S'G'
p103
sg32
g8
sg24
g25
sg34
g12
sasg32
g8
sg33
I109
sg34
g12
sasg32
F0.16666666666666666
sg33
I9
sg34
g3
sa(dp104
g2
g3
sg7
F0.125
sg5
g6
sg17
g18
sg4
g3
sg9
F0.16666666666666666
sg10
F0.125
sg11
g3
sg13
(lp105
(dp106
g2
g41
sg7
g8
sg5
g42
sg17
g18
sg4
g41
sg9
F1.0
sg10
F1.0
sg11
g12
sg13
(lp107
(dp108
g21
I30
sg7
g8
sg17
g23
sg33
I1010
sg11
g12
sg13
(lp109
sg28
g46
sg30
S'H'
p110
sg32
g8
sg24
g25
sg34
g12
sasg32
g8
sg33
I110
sg34
g12
sasg32
F0.16666666666666666
sg33
I10
sg34
g3
sa(dp111
g2
g3
sg7
F0.25
sg5
g6
sg17
g18
sg4
g3
sg9
F0.16666666666666666
sg10
F0.125
sg11
g3
sg13
(lp112
(dp113
g2
g41
sg7
g8
sg5
g42
sg17
g18
sg4
g41
sg9
F1.0
sg10
F1.0
sg11
g12
sg13
(lp114
(dp115
g21
I30
sg7
g8
sg17
g23
sg33
I1011
sg11
g12
sg13
(lp116
sg28
g46
sg30
S'I'
p117
sg32
g8
sg24
g25
sg34
g12
sasg32
g8
sg33
I111
sg34
g12
sasg32
F0.16666666666666666
sg33
I11
sg34
g3
sa(dp118
g2
g3
sg7
F0.375
sg5
g6
sg17
g18
sg4
g3
sg9
F0.16666666666666666
sg10
F0.125
sg11
g3
sg13
(lp119
(dp120
g2
g41
sg7
g8
sg5
g42
sg17
g18
sg4
g41
sg9
F1.0
sg10
F1.0
sg11
g12
sg13
(lp121
(dp122
g21
I30
sg7
g8
sg17
g23
sg33
I1012
sg11
g12
sg13
(lp123
sg28
g46
sg30
S'J'
p124
sg32
g8
sg24
g25
sg34
g12
sasg32
g8
sg33
I112
sg34
g12
sasg32
F0.16666666666666666
sg33
I12
sg34
g3
sa(dp125
g2
g3
sg7
F0.5
sg5
g6
sg17
g18
sg4
g3
sg9
F0.16666666666666666
sg10
F0.125
sg11
g3
sg13
(lp126
(dp127
g2
g41
sg7
g8
sg5
g42
sg17
g18
sg4
g41
sg9
F1.0
sg10
F1.0
sg11
g12
sg13
(lp128
(dp129
g21
I30
sg7
g8
sg17
g23
sg33
I1013
sg11
g12
sg13
(lp130
sg28
g46
sg30
S'K'
p131
sg32
g8
sg24
g25
sg34
g12
sasg32
g8
sg33
I113
sg34
g12
sasg32
F0.16666666666666666
sg33
I13
sg34
g3
sa(dp132
g2
g3
sg7
F0.625
sg5
g6
sg17
g18
sg4
g3
sg9
F0.16666666666666666
sg10
F0.125
sg11
g3
sg13
(lp133
(dp134
g2
g41
sg7
g8
sg5
g42
sg17
g18
sg4
g41
sg9
F1.0
sg10
F1.0
sg11
g12
sg13
(lp135
(dp136
g21
I30
sg7
g8
sg17
g23
sg33
I1014
sg11
g12
sg13
(lp137
sg28
g46
sg30
S'L'
p138
sg32
g8
sg24
g25
sg34
g12
sasg32
g8
sg33
I114
sg34
g12
sasg32
F0.16666666666666666
sg33
I14
sg34
g3
sa(dp139
g2
g3
sg7
F0.75
sg5
g6
sg17
g18
sg4
g3
sg9
F0.16666666666666666
sg10
F0.125
sg11
g3
sg13
(lp140
(dp141
g2
g41
sg7
g8
sg5
g42
sg17
g18
sg4
g41
sg9
F1.0
sg10
F1.0
sg11
g12
sg13
(lp142
(dp143
g21
I30
sg7
g8
sg17
g23
sg33
I1015
sg11
g12
sg13
(lp144
sg28
g46
sg30
S'3'
p145
sg32
g8
sg24
g25
sg34
g12
sasg32
g8
sg33
I115
sg34
g12
sasg32
F0.16666666666666666
sg33
I15
sg34
g3
sa(dp146
g2
g3
sg7
F0.875
sg5
g6
sg17
g18
sg4
g3
sg9
F0.16666666666666666
sg10
F0.125
sg11
g3
sg13
(lp147
(dp148
g2
g41
sg7
g8
sg5
g42
sg17
g18
sg4
g41
sg9
F1.0
sg10
F1.0
sg11
g12
sg13
(lp149
(dp150
g21
I30
sg7
g8
sg17
g23
sg33
I1016
sg11
g12
sg13
(lp151
sg28
g46
sg30
S'4'
p152
sg32
g8
sg24
g25
sg34
g12
sasg32
g8
sg33
I116
sg34
g12
sasg32
F0.16666666666666666
sg33
I16
sg34
g3
sa(dp153
g2
g3
sg7
F0.0
sg5
g6
sg17
g18
sg4
g3
sg9
F0.16666666666666666
sg10
F0.125
sg11
g3
sg13
(lp154
(dp155
g2
g41
sg7
g8
sg5
g42
sg17
g18
sg4
g41
sg9
F1.0
sg10
F1.0
sg11
g12
sg13
(lp156
(dp157
g21
I30
sg7
g8
sg17
g23
sg33
I1017
sg11
g12
sg13
(lp158
sg28
g46
sg30
S'M'
p159
sg32
g8
sg24
g25
sg34
g12
sasg32
g8
sg33
I117
sg34
g12
sasg32
F0.3333333333333333
sg33
I17
sg34
g3
sa(dp160
g2
g3
sg7
F0.125
sg5
g6
sg17
g18
sg4
g3
sg9
F0.16666666666666666
sg10
F0.125
sg11
g3
sg13
(lp161
(dp162
g2
g41
sg7
g8
sg5
g42
sg17
g18
sg4
g41
sg9
F1.0
sg10
F1.0
sg11
g12
sg13
(lp163
(dp164
g21
I30
sg7
g8
sg17
g23
sg33
I1018
sg11
g12
sg13
(lp165
sg28
g46
sg30
S'N'
p166
sg32
g8
sg24
g25
sg34
g12
sasg32
g8
sg33
I118
sg34
g12
sasg32
F0.3333333333333333
sg33
I18
sg34
g3
sa(dp167
g2
g3
sg7
F0.25
sg5
g6
sg17
g18
sg4
g3
sg9
F0.16666666666666666
sg10
F0.125
sg11
g3
sg13
(lp168
(dp169
g2
g41
sg7
g8
sg5
g42
sg17
g18
sg4
g41
sg9
F1.0
sg10
F1.0
sg11
g12
sg13
(lp170
(dp171
g21
I30
sg7
g8
sg17
g23
sg33
I1019
sg11
g12
sg13
(lp172
sg28
g46
sg30
S'O'
p173
sg32
g8
sg24
g25
sg34
g12
sasg32
g8
sg33
I119
sg34
g12
sasg32
F0.3333333333333333
sg33
I19
sg34
g3
sa(dp174
g2
g3
sg7
F0.375
sg5
g6
sg17
g18
sg4
g3
sg9
F0.16666666666666666
sg10
F0.125
sg11
g3
sg13
(lp175
(dp176
g2
g41
sg7
g8
sg5
g42
sg17
g18
sg4
g41
sg9
F1.0
sg10
F1.0
sg11
g12
sg13
(lp177
(dp178
g21
I30
sg7
g8
sg17
g23
sg33
I1020
sg11
g12
sg13
(lp179
sg28
g46
sg30
S'P'
p180
sg32
g8
sg24
g25
sg34
g12
sasg32
g8
sg33
I120
sg34
g12
sasg32
F0.3333333333333333
sg33
I20
sg34
g3
sa(dp181
g2
g3
sg7
F0.5
sg5
g6
sg17
g18
sg4
g3
sg9
F0.16666666666666666
sg10
F0.125
sg11
g3
sg13
(lp182
(dp183
g2
g41
sg7
g8
sg5
g42
sg17
g18
sg4
g41
sg9
F1.0
sg10
F1.0
sg11
g12
sg13
(lp184
(dp185
g21
I30
sg7
g8
sg17
g23
sg33
I1021
sg11
g12
sg13
(lp186
sg28
g46
sg30
S'Q'
p187
sg32
g8
sg24
g25
sg34
g12
sasg32
g8
sg33
I121
sg34
g12
sasg32
F0.3333333333333333
sg33
I21
sg34
g3
sa(dp188
g2
g3
sg7
F0.625
sg5
g6
sg17
g18
sg4
g3
sg9
F0.16666666666666666
sg10
F0.125
sg11
g3
sg13
(lp189
(dp190
g2
g41
sg7
g8
sg5
g42
sg17
g18
sg4
g41
sg9
F1.0
sg10
F1.0
sg11
g12
sg13
(lp191
(dp192
g21
I30
sg7
g8
sg17
g23
sg33
I1022
sg11
g12
sg13
(lp193
sg28
g46
sg30
S'R'
p194
sg32
g8
sg24
g25
sg34
g12
sasg32
g8
sg33
I122
sg34
g12
sasg32
F0.3333333333333333
sg33
I22
sg34
g3
sa(dp195
g2
g3
sg7
F0.75
sg5
g6
sg17
g18
sg4
g3
sg9
F0.16666666666666666
sg10
F0.125
sg11
g3
sg13
(lp196
(dp197
g2
g41
sg7
g8
sg5
g42
sg17
g18
sg4
g41
sg9
F1.0
sg10
F1.0
sg11
g12
sg13
(lp198
(dp199
g21
I30
sg7
g8
sg17
g23
sg33
I1023
sg11
g12
sg13
(lp200
sg28
g46
sg30
S'5'
p201
sg32
g8
sg24
g25
sg34
g12
sasg32
g8
sg33
I123
sg34
g12
sasg32
F0.3333333333333333
sg33
I23
sg34
g3
sa(dp202
g2
g3
sg7
F0.875
sg5
g6
sg17
g18
sg4
g3
sg9
F0.16666666666666666
sg10
F0.125
sg11
g3
sg13
(lp203
(dp204
g2
g41
sg7
g8
sg5
g42
sg17
g18
sg4
g41
sg9
F1.0
sg10
F1.0
sg11
g12
sg13
(lp205
(dp206
g21
I30
sg7
g8
sg17
g23
sg33
I1024
sg11
g12
sg13
(lp207
sg28
g46
sg30
S'6'
p208
sg32
g8
sg24
g25
sg34
g12
sasg32
g8
sg33
I124
sg34
g12
sasg32
F0.3333333333333333
sg33
I24
sg34
g3
sa(dp209
g2
g3
sg7
F0.0
sg5
g6
sg17
g18
sg4
g3
sg9
F0.16666666666666666
sg10
F0.125
sg11
g3
sg13
(lp210
(dp211
g2
g41
sg7
g8
sg5
g42
sg17
g18
sg4
g41
sg9
F1.0
sg10
F1.0
sg11
g12
sg13
(lp212
(dp213
g21
I30
sg7
g8
sg17
g23
sg33
I1025
sg11
g12
sg13
(lp214
sg28
g46
sg30
S'S'
p215
sg32
g8
sg24
g25
sg34
g12
sasg32
g8
sg33
I125
sg34
g12
sasg32
F0.5
sg33
I25
sg34
g3
sa(dp216
g2
g3
sg7
F0.125
sg5
g6
sg17
g18
sg4
g3
sg9
F0.16666666666666666
sg10
F0.125
sg11
g3
sg13
(lp217
(dp218
g2
g41
sg7
g8
sg5
g42
sg17
g18
sg4
g41
sg9
F1.0
sg10
F1.0
sg11
g12
sg13
(lp219
(dp220
g21
I30
sg7
g8
sg17
g23
sg33
I1026
sg11
g12
sg13
(lp221
sg28
g46
sg30
S'T'
p222
sg32
g8
sg24
g25
sg34
g12
sasg32
g8
sg33
I126
sg34
g12
sasg32
F0.5
sg33
I26
sg34
g3
sa(dp223
g2
g3
sg7
F0.25
sg5
g6
sg17
g18
sg4
g3
sg9
F0.16666666666666666
sg10
F0.125
sg11
g3
sg13
(lp224
(dp225
g2
g41
sg7
g8
sg5
g42
sg17
g18
sg4
g41
sg9
F1.0
sg10
F1.0
sg11
g12
sg13
(lp226
(dp227
g21
I30
sg7
g8
sg17
g23
sg33
I1027
sg11
g12
sg13
(lp228
sg28
g46
sg30
S'U'
p229
sg32
g8
sg24
g25
sg34
g12
sasg32
g8
sg33
I127
sg34
g12
sasg32
F0.5
sg33
I27
sg34
g3
sa(dp230
g2
g3
sg7
F0.375
sg5
g6
sg17
g18
sg4
g3
sg9
F0.16666666666666666
sg10
F0.125
sg11
g3
sg13
(lp231
(dp232
g2
g41
sg7
g8
sg5
g42
sg17
g18
sg4
g41
sg9
F1.0
sg10
F1.0
sg11
g12
sg13
(lp233
(dp234
g21
I30
sg7
g8
sg17
g23
sg33
I1028
sg11
g12
sg13
(lp235
sg28
g46
sg30
S'V'
p236
sg32
g8
sg24
g25
sg34
g12
sasg32
g8
sg33
I128
sg34
g12
sasg32
F0.5
sg33
I28
sg34
g3
sa(dp237
g2
g3
sg7
F0.5
sg5
g6
sg17
g18
sg4
g3
sg9
F0.16666666666666666
sg10
F0.125
sg11
g3
sg13
(lp238
(dp239
g2
g41
sg7
g8
sg5
g42
sg17
g18
sg4
g41
sg9
F1.0
sg10
F1.0
sg11
g12
sg13
(lp240
(dp241
g21
I30
sg7
g8
sg17
g23
sg33
I1029
sg11
g12
sg13
(lp242
sg28
g46
sg30
S'W'
p243
sg32
g8
sg24
g25
sg34
g12
sasg32
g8
sg33
I129
sg34
g12
sasg32
F0.5
sg33
I29
sg34
g3
sa(dp244
g2
g3
sg7
F0.625
sg5
g6
sg17
g18
sg4
g3
sg9
F0.16666666666666666
sg10
F0.125
sg11
g3
sg13
(lp245
(dp246
g2
g41
sg7
g8
sg5
g42
sg17
g18
sg4
g41
sg9
F1.0
sg10
F1.0
sg11
g12
sg13
(lp247
(dp248
g21
I30
sg7
g8
sg17
g23
sg33
I1030
sg11
g12
sg13
(lp249
sg28
g46
sg30
S'X'
p250
sg32
g8
sg24
g25
sg34
g12
sasg32
g8
sg33
I130
sg34
g12
sasg32
F0.5
sg33
I30
sg34
g3
sa(dp251
g2
g3
sg7
F0.75
sg5
g6
sg17
g18
sg4
g3
sg9
F0.16666666666666666
sg10
F0.125
sg11
g3
sg13
(lp252
(dp253
g2
g41
sg7
g8
sg5
g42
sg17
g18
sg4
g41
sg9
F1.0
sg10
F1.0
sg11
g12
sg13
(lp254
(dp255
g21
I30
sg7
g8
sg17
g23
sg33
I1031
sg11
g12
sg13
(lp256
sg28
g46
sg30
S'7'
p257
sg32
g8
sg24
g25
sg34
g12
sasg32
g8
sg33
I131
sg34
g12
sasg32
F0.5
sg33
I31
sg34
g3
sa(dp258
g2
g3
sg7
F0.875
sg5
g6
sg17
g18
sg4
g3
sg9
F0.16666666666666666
sg10
F0.125
sg11
g3
sg13
(lp259
(dp260
g2
g41
sg7
g8
sg5
g42
sg17
g18
sg4
g41
sg9
F1.0
sg10
F1.0
sg11
g12
sg13
(lp261
(dp262
g21
I30
sg7
g8
sg17
g23
sg33
I1032
sg11
g12
sg13
(lp263
sg28
g46
sg30
S'8'
p264
sg32
g8
sg24
g25
sg34
g12
sasg32
g8
sg33
I132
sg34
g12
sasg32
F0.5
sg33
I32
sg34
g3
sa(dp265
g2
g3
sg7
F0.0
sg5
g6
sg17
g18
sg4
g3
sg9
F0.16666666666666666
sg10
F0.125
sg11
g3
sg13
(lp266
(dp267
g2
g41
sg7
g8
sg5
g42
sg17
g18
sg4
g41
sg9
F1.0
sg10
F1.0
sg11
g12
sg13
(lp268
(dp269
g21
I30
sg7
g8
sg17
g23
sg33
I1033
sg11
g12
sg13
(lp270
sg28
g46
sg30
S'Y'
p271
sg32
g8
sg24
g25
sg34
g12
sasg32
g8
sg33
I133
sg34
g12
sasg32
F0.6666666666666666
sg33
I33
sg34
g3
sa(dp272
g2
g3
sg7
F0.125
sg5
g6
sg17
g18
sg4
g3
sg9
F0.16666666666666666
sg10
F0.125
sg11
g3
sg13
(lp273
(dp274
g2
g41
sg7
g8
sg5
g42
sg17
g18
sg4
g41
sg9
F1.0
sg10
F1.0
sg11
g12
sg13
(lp275
(dp276
g21
I30
sg7
g8
sg17
g23
sg33
I1034
sg11
g12
sg13
(lp277
sg28
g46
sg30
S'Z'
p278
sg32
g8
sg24
g25
sg34
g12
sasg32
g8
sg33
I134
sg34
g12
sasg32
F0.6666666666666666
sg33
I34
sg34
g3
sa(dp279
g2
g3
sg7
F0.25
sg5
g6
sg17
g18
sg4
g3
sg9
F0.16666666666666666
sg10
F0.125
sg11
g3
sg13
(lp280
(dp281
g2
g41
sg7
g8
sg5
g42
sg17
g18
sg4
g41
sg9
F1.0
sg10
F1.0
sg11
g12
sg13
(lp282
(dp283
g21
I30
sg7
g8
sg17
g23
sg33
I1035
sg11
g12
sg13
(lp284
sg28
g46
sg30
S'_'
p285
sg32
g8
sg24
g25
sg34
g12
sasg32
g8
sg33
I135
sg34
g12
sasg32
F0.6666666666666666
sg33
I35
sg34
g3
sa(dp286
g2
g3
sg7
F0.375
sg5
g6
sg17
g18
sg4
g3
sg9
F0.16666666666666666
sg10
F0.125
sg11
g3
sg13
(lp287
(dp288
g2
g41
sg7
g8
sg5
g42
sg17
g18
sg4
g41
sg9
F1.0
sg10
F1.0
sg11
g12
sg13
(lp289
(dp290
g21
I30
sg7
g8
sg17
g23
sg33
I1036
sg11
g12
sg13
(lp291
sg28
g46
sg30
S'?'
p292
sg32
g8
sg24
g25
sg34
g12
sasg32
g8
sg33
I136
sg34
g12
sasg32
F0.6666666666666666
sg33
I36
sg34
g3
sa(dp293
g2
g3
sg7
F0.5
sg5
g6
sg17
g18
sg4
g3
sg9
F0.16666666666666666
sg10
F0.125
sg11
g3
sg13
(lp294
(dp295
g2
g41
sg7
g8
sg5
g42
sg17
g18
sg4
g41
sg9
F1.0
sg10
F1.0
sg11
g12
sg13
(lp296
(dp297
g21
I30
sg7
g8
sg17
g23
sg33
I1037
sg11
g12
sg13
(lp298
sg28
g46
sg30
S','
p299
sg32
g8
sg24
g25
sg34
g12
sasg32
g8
sg33
I137
sg34
g12
sasg32
F0.6666666666666666
sg33
I37
sg34
g3
sa(dp300
g2
g3
sg7
F0.625
sg5
g6
sg17
g18
sg4
g3
sg9
F0.16666666666666666
sg10
F0.125
sg11
g3
sg13
(lp301
(dp302
g2
g41
sg7
g8
sg5
g42
sg17
g18
sg4
g41
sg9
F1.0
sg10
F1.0
sg11
g12
sg13
(lp303
(dp304
g21
I30
sg7
g8
sg17
g23
sg33
I1038
sg11
g12
sg13
(lp305
sg28
g46
sg30
S'.'
p306
sg32
g8
sg24
g25
sg34
g12
sasg32
g8
sg33
I138
sg34
g12
sasg32
F0.6666666666666666
sg33
I38
sg34
g3
sa(dp307
g2
g3
sg7
F0.75
sg5
g6
sg17
g18
sg4
g3
sg9
F0.16666666666666666
sg10
F0.125
sg11
g3
sg13
(lp308
(dp309
g2
g41
sg7
g8
sg5
g42
sg17
g18
sg4
g41
sg9
F1.0
sg10
F1.0
sg11
g12
sg13
(lp310
(dp311
g21
I30
sg7
g8
sg17
g23
sg33
I1039
sg11
g12
sg13
(lp312
sg28
g46
sg30
S'9'
p313
sg32
g8
sg24
g25
sg34
g12
sasg32
g8
sg33
I139
sg34
g12
sasg32
F0.6666666666666666
sg33
I39
sg34
g3
sa(dp314
g2
g3
sg7
F0.875
sg5
g6
sg17
g18
sg4
g3
sg9
F0.16666666666666666
sg10
F0.125
sg11
g3
sg13
(lp315
(dp316
g2
g41
sg7
g8
sg5
g42
sg17
g18
sg4
g41
sg9
F1.0
sg10
F1.0
sg11
g12
sg13
(lp317
(dp318
g21
I30
sg7
g8
sg17
g23
sg33
I1040
sg11
g12
sg13
(lp319
sg28
g46
sg30
S'0'
p320
sg32
g8
sg24
g25
sg34
g12
sasg32
g8
sg33
I140
sg34
g12
sasg32
F0.6666666666666666
sg33
I40
sg34
g3
sa(dp321
g2
g3
sg7
F0.0
sg5
g6
sg17
g18
sg4
g3
sg9
F0.16666666666666666
sg10
F0.125
sg11
g3
sg13
(lp322
(dp323
g2
g41
sg7
g8
sg5
g42
sg17
g18
sg4
g41
sg9
F1.0
sg10
F1.0
sg11
g12
sg13
(lp324
(dp325
g21
I30
sg7
g8
sg17
g23
sg33
I1041
sg11
g12
sg13
(lp326
sg28
g46
sg30
S'<'
p327
sg32
g8
sg24
g25
sg34
g12
sasg32
g8
sg33
I141
sg34
g12
sasg32
F0.8333333333333333
sg33
I41
sg34
g3
sa(dp328
g2
g3
sg7
F0.125
sg5
g6
sg17
g18
sg4
g3
sg9
F0.16666666666666666
sg10
F0.125
sg11
g3
sg13
(lp329
(dp330
g2
g41
sg7
g8
sg5
g42
sg17
g18
sg4
g41
sg9
F1.0
sg10
F1.0
sg11
g12
sg13
(lp331
(dp332
g21
I30
sg7
g8
sg17
g23
sg33
I1042
sg11
g12
sg13
(lp333
sg28
g46
sg30
S'<<'
p334
sg32
g8
sg24
g25
sg34
g12
sasg32
g8
sg33
I142
sg34
g12
sasg32
F0.8333333333333333
sg33
I42
sg34
g3
sa(dp335
g2
g3
sg7
F0.25
sg5
g6
sg17
g18
sg4
g3
sg9
F0.16666666666666666
sg10
F0.125
sg11
g3
sg13
(lp336
(dp337
g2
g41
sg7
g8
sg5
g42
sg17
g18
sg4
g41
sg9
F1.0
sg10
F1.0
sg11
g12
sg13
(lp338
(dp339
g21
I30
sg7
g8
sg17
g23
sg33
I1043
sg11
g12
sg13
(lp340
sg28
g46
sg30
S'clear'
p341
sg32
g8
sg24
g25
sg34
g12
sasg32
g8
sg33
I143
sg34
g12
sasg32
F0.8333333333333333
sg33
I43
sg34
g3
sa(dp342
g2
g3
sg7
F0.375
sg5
g6
sg17
g18
sg4
g3
sg9
F0.16666666666666666
sg10
F0.125
sg11
g3
sg13
(lp343
(dp344
g2
g41
sg7
g8
sg5
g42
sg17
g18
sg4
g41
sg9
F1.0
sg10
F1.0
sg11
g12
sg13
(lp345
(dp346
g21
I30
sg7
g8
sg17
g23
sg33
I1044
sg11
g12
sg13
(lp347
sg28
g46
sg30
S'retrieve'
p348
sg32
g8
sg24
g25
sg34
g12
sasg32
g8
sg33
I144
sg34
g12
sasg32
F0.8333333333333333
sg33
I44
sg34
g3
sa(dp349
g2
g3
sg7
F0.5
sg5
g6
sg17
g18
sg4
g3
sg9
F0.16666666666666666
sg10
F0.125
sg11
g3
sg13
(lp350
(dp351
g2
g41
sg7
g8
sg5
g42
sg17
g18
sg4
g41
sg9
F1.0
sg10
F1.0
sg11
g12
sg13
(lp352
(dp353
g21
I30
sg7
g8
sg17
g23
sg33
I1045
sg11
g12
sg13
(lp354
sg28
g46
sg30
S'send'
p355
sg32
g8
sg24
g25
sg34
g12
sasg32
g8
sg33
I145
sg34
g12
sasg32
F0.8333333333333333
sg33
I45
sg34
g3
sa(dp356
g2
g3
sg7
F0.625
sg5
g6
sg17
g18
sg4
g3
sg9
F0.16666666666666666
sg10
F0.125
sg11
g3
sg13
(lp357
(dp358
g2
g41
sg7
g8
sg5
g42
sg17
g18
sg4
g41
sg9
F1.0
sg10
F1.0
sg11
g12
sg13
(lp359
(dp360
g21
I30
sg7
g8
sg17
g23
sg33
I1046
sg11
g12
sg13
(lp361
sg28
g46
sg30
S'call'
p362
sg32
g8
sg24
g25
sg34
g12
sasg32
g8
sg33
I146
sg34
g12
sasg32
F0.8333333333333333
sg33
I46
sg34
g3
sa(dp363
g2
g3
sg7
F0.75
sg5
g6
sg17
g18
sg4
g3
sg9
F0.16666666666666666
sg10
F0.125
sg11
g3
sg13
(lp364
(dp365
g2
g41
sg7
g8
sg5
g42
sg17
g18
sg4
g41
sg9
F1.0
sg10
F1.0
sg11
g12
sg13
(lp366
(dp367
g21
I30
sg7
g8
sg17
g23
sg33
I1047
sg11
g12
sg13
(lp368
sg28
g46
sg30
S'say'
p369
sg32
g8
sg24
g25
sg34
g12
sasg32
g8
sg33
I147
sg34
g12
sasg32
F0.8333333333333333
sg33
I47
sg34
g3
sa(dp370
g2
g3
sg7
F0.875
sg5
g6
sg17
g18
sg4
g3
sg9
F0.16666666666666666
sg10
F0.125
sg11
g3
sg13
(lp371
(dp372
g2
g41
sg7
g8
sg5
g42
sg17
g18
sg4
g41
sg9
F1.0
sg10
F1.0
sg11
g12
sg13
(lp373
(dp374
g21
I30
sg7
g8
sg17
g23
sg33
I1048
sg11
g12
sg13
(lp375
sg28
g46
sg30
S'help'
p376
sg32
g8
sg24
g25
sg34
g12
sasg32
g8
sg33
I148
sg34
g12
sasg32
F0.8333333333333333
sg33
I48
sg34
g3
sasg32
S'bottom'
p377
sg33
I999
sg34
g12
sa.