(lp0
(dp1
S'width_type'
p2
S'relative'
p3
sS'height_type'
p4
S'relative'
p5
sS'color'
p6
S'#000000'
p7
sS'position_horizontal'
p8
I0
sS'height'
p9
F1.0
sS'width'
p10
F1.0
sS'position_horizontal_type'
p11
S'absolute'
p12
sS'stimuluses'
p13
(lp14
sS'position_vertical'
p15
I0
sS'id'
p16
I1
sS'position_vertical_type'
p17
g12
sa.