(lp0
(dp1
S'width_type'
p2
S'relative'
p3
sS'height_type'
p4
g3
sS'color'
p5
S''
p6
sS'position_horizontal'
p7
S'center'
p8
sS'height'
p9
F0.10000000000000001
sS'width'
p10
I1
sS'position_horizontal_type'
p11
S'aligned'
p12
sS'stimuluses'
p13
(lp14
(dp15
g2
g3
sg4
g3
sg5
S'#ffffff'
p16
sS'stimulus_type'
p17
S'rectangle'
p18
sg7
g8
sg9
F0.90000000000000002
sg10
I1
sg11
g12
sg13
(lp19
(dp20
S'font_size'
p21
I20
sg7
I20
sg17
S'text'
p22
sS'font_family'
p23
S'Serif'
p24
sg11
S'absolute'
p25
sg13
(lp26
sS'font_color'
p27
S'#000000'
p28
sS'message'
p29
g6
sS'position_vertical'
p30
g8
sS'id'
p31
I909
sS'position_vertical_type'
p32
g12
sasg30
g8
sg31
I889
sg32
g12
sasg30
S'top'
p33
sg31
I888
sg32
g12
sa(dp34
g2
g3
sg4
g3
sg5
g6
sg7
g8
sg9
F0.90000000000000002
sg10
I1
sg11
g12
sg13
(lp35
(dp36
g2
g3
sg4
g3
sg5
g6
sg17
g18
sg7
F0.0
sg9
F0.5
sg10
F0.25
sg11
g3
sg13
(lp37
(dp38
g2
g3
sg4
g3
sg5
S'#55ff00'
p39
sg17
g18
sg7
g8
sg9
F0.80000000000000004
sg10
F0.80000000000000004
sg11
g12
sg13
(lp40
(dp41
g21
I20
sg7
g8
sg17
g22
sg23
g24
sg11
g12
sg13
(lp42
sg27
g28
sg29
S'X'
p43
sg30
F0.40000000000000002
sg31
I900
sg32
S'relative'
p44
sa(dp45
g2
S'absolute'
p46
sS'feedback_level'
p47
F0.0
sg4
g46
sg5
S'#ffffff'
p48
sg17
S'feedback'
p49
sg7
S'center'
p50
sg9
F70.0
sg10
F20.0
sg11
S'aligned'
p51
sg13
(lp52
sg30
F0.5
sg31
I30000
sg32
S'relative'
p53
sasg30
g8
sg31
I11
sg32
g12
sasg30
F0.0
sg31
I1
sg32
g3
sa(dp54
g2
g3
sg4
g3
sg5
g6
sg17
g18
sg7
F0.25
sg9
F0.5
sg10
F0.25
sg11
g3
sg13
(lp55
(dp56
g2
g3
sg4
g3
sg5
S'#00ff00'
p57
sg17
g18
sg7
g8
sg9
F0.80000000000000004
sg10
F0.80000000000000004
sg11
g12
sg13
(lp58
(dp59
g21
I20
sg7
g8
sg17
g22
sg23
g24
sg11
g12
sg13
(lp60
sg27
g28
sg29
S'X'
p61
sg30
F0.40000000000000002
sg31
I901
sg32
S'relative'
p62
sa(dp63
g2
S'absolute'
p64
sg47
F0.0
sg4
S'absolute'
p65
sg5
S'#ffffff'
p66
sg17
g49
sg7
S'center'
p67
sg9
F70.0
sg10
F20.0
sg11
S'aligned'
p68
sg13
(lp69
sg30
F0.5
sg31
I30001
sg32
S'relative'
p70
sasg30
g8
sg31
I21
sg32
g12
sasg30
F0.0
sg31
I2
sg32
g3
sa(dp71
g2
g3
sg4
g3
sg5
g6
sg17
g18
sg7
F0.5
sg9
F0.5
sg10
F0.25
sg11
g3
sg13
(lp72
(dp73
g2
g3
sg4
g3
sg5
g57
sg17
g18
sg7
g8
sg9
F0.80000000000000004
sg10
F0.80000000000000004
sg11
g12
sg13
(lp74
(dp75
g21
I20
sg7
g8
sg17
g22
sg23
g24
sg11
g12
sg13
(lp76
sg27
g28
sg29
S'X'
p77
sg30
F0.40000000000000002
sg31
I902
sg32
S'relative'
p78
sa(dp79
g2
S'absolute'
p80
sg47
F0.0
sg4
g80
sg5
S'#ffffff'
p81
sg17
g49
sg7
S'center'
p82
sg9
F70.0
sg10
F20.0
sg11
S'aligned'
p83
sg13
(lp84
sg30
F0.5
sg31
I30002
sg32
S'relative'
p85
sasg30
g8
sg31
I31
sg32
g12
sasg30
F0.0
sg31
I3
sg32
g3
sa(dp86
g2
g3
sg4
g3
sg5
g6
sg17
g18
sg7
F0.75
sg9
F0.5
sg10
F0.25
sg11
g3
sg13
(lp87
(dp88
g2
g3
sg4
g3
sg5
g57
sg17
g18
sg7
g8
sg9
F0.80000000000000004
sg10
F0.80000000000000004
sg11
g12
sg13
(lp89
(dp90
g21
I20
sg7
g8
sg17
g22
sg23
g24
sg11
g12
sg13
(lp91
sg27
g28
sg29
S'X'
p92
sg30
F0.40000000000000002
sg31
I903
sg32
S'relative'
p93
sa(dp94
g2
S'absolute'
p95
sg47
F0.0
sg4
g95
sg5
S'#ffffff'
p96
sg17
g49
sg7
S'center'
p97
sg9
F70.0
sg10
F20.0
sg11
S'aligned'
p98
sg13
(lp99
sg30
F0.5
sg31
I30003
sg32
S'relative'
p100
sasg30
g8
sg31
I41
sg32
g12
sasg30
F0.0
sg31
I4
sg32
g3
sa(dp101
g2
g3
sg4
g3
sg5
g6
sg17
g18
sg7
F0.0
sg9
F0.5
sg10
F0.25
sg11
g3
sg13
(lp102
(dp103
g2
g3
sg4
g3
sg5
g57
sg17
g18
sg7
g8
sg9
F0.80000000000000004
sg10
F0.80000000000000004
sg11
g12
sg13
(lp104
(dp105
g21
I20
sg7
g8
sg17
g22
sg23
g24
sg11
g12
sg13
(lp106
sg27
g28
sg29
S'X'
p107
sg30
F0.40000000000000002
sg31
I904
sg32
S'relative'
p108
sa(dp109
g2
S'absolute'
p110
sg47
F0.0
sg4
g110
sg5
S'#ffffff'
p111
sg17
g49
sg7
S'center'
p112
sg9
F70.0
sg10
F20.0
sg11
S'aligned'
p113
sg13
(lp114
sg30
F0.5
sg31
I30004
sg32
S'relative'
p115
sasg30
g8
sg31
I51
sg32
g12
sasg30
F0.5
sg31
I5
sg32
g3
sa(dp116
g2
g3
sg4
g3
sg5
g6
sg17
g18
sg7
F0.25
sg9
F0.5
sg10
F0.25
sg11
g3
sg13
(lp117
(dp118
g2
g3
sg4
g3
sg5
g57
sg17
g18
sg7
g8
sg9
F0.80000000000000004
sg10
F0.80000000000000004
sg11
g12
sg13
(lp119
(dp120
g21
I20
sg7
g8
sg17
g22
sg23
g24
sg11
g12
sg13
(lp121
sg27
g28
sg29
S'X'
p122
sg30
F0.40000000000000002
sg31
I905
sg32
S'relative'
p123
sa(dp124
g2
S'absolute'
p125
sg47
F0.0
sg4
g125
sg5
S'#ffffff'
p126
sg17
g49
sg7
S'center'
p127
sg9
F70.0
sg10
F20.0
sg11
S'aligned'
p128
sg13
(lp129
sg30
F0.5
sg31
I30005
sg32
S'relative'
p130
sasg30
g8
sg31
I61
sg32
g12
sasg30
F0.5
sg31
I6
sg32
g3
sa(dp131
g2
g3
sg4
g3
sg5
g6
sg17
g18
sg7
F0.5
sg9
F0.5
sg10
F0.25
sg11
g3
sg13
(lp132
(dp133
g2
g3
sg4
g3
sg5
g57
sg17
g18
sg7
g8
sg9
F0.80000000000000004
sg10
F0.80000000000000004
sg11
g12
sg13
(lp134
(dp135
g21
I20
sg7
g8
sg17
g22
sg23
g24
sg11
g12
sg13
(lp136
sg27
g28
sg29
S'X'
p137
sg30
F0.40000000000000002
sg31
I906
sg32
S'relative'
p138
sa(dp139
g2
g125
sg47
F0.0
sg4
g125
sg5
S'#ffffff'
p140
sg17
g49
sg7
S'center'
p141
sg9
F70.0
sg10
F20.0
sg11
S'aligned'
p142
sg13
(lp143
sg30
F0.5
sg31
I30006
sg32
S'relative'
p144
sasg30
g8
sg31
I71
sg32
g12
sasg30
F0.5
sg31
I7
sg32
g3
sa(dp145
g2
g3
sg4
g3
sg5
g6
sg17
g18
sg7
F0.75
sg9
F0.5
sg10
F0.25
sg11
g3
sg13
(lp146
(dp147
g2
g3
sg4
g3
sg5
g57
sg17
g18
sg7
g8
sg9
F0.80000000000000004
sg10
F0.80000000000000004
sg11
g12
sg13
(lp148
(dp149
g21
I20
sg7
g8
sg17
g22
sg23
g24
sg11
g12
sg13
(lp150
sg27
g28
sg29
S'X'
p151
sg30
F0.40000000000000002
sg31
I907
sg32
S'relative'
p152
sa(dp153
g2
S'absolute'
p154
sg47
F0.0
sg4
g154
sg5
S'#ffffff'
p155
sg17
g49
sg7
S'center'
p156
sg9
F70.0
sg10
F20.0
sg11
S'aligned'
p157
sg13
(lp158
sg30
F0.5
sg31
I30007
sg32
S'relative'
p159
sasg30
g8
sg31
I81
sg32
g12
sasg30
F0.5
sg31
I8
sg32
g3
sa(dp160
g2
S'absolute'
p161
sg4
g161
sg5
S'#ff0000'
p162
sg17
S'rectangle'
p163
sg7
I0
sg9
F100.0
sg10
F100.0
sg11
g161
sg13
(lp164
sg30
I0
sg31
I40000
sg32
g161
sasg30
S'bottom'
p165
sg31
I999
sg32
g12
sa.