(lp0
(dp1
S'position_horizontal'
p2
I0
sS'color'
p3
S'#000000'
p4
sS'height'
p5
F9999.0
sS'position_horizontal_type'
p6
S'absolute'
p7
sS'id'
p8
I0
sS'width_type'
p9
g7
sS'height_type'
p10
g7
sS'width'
p11
F9999.0
sS'stimuluses'
p12
(lp13
sS'position_vertical'
p14
I0
sS'position_vertical_type'
p15
g7
sa(dp16
S'width_type'
p17
S'absolute'
p18
sS'position_horizontal'
p19
I0
sS'color'
p20
S'#000000'
p21
sS'height_type'
p22
g18
sS'height'
p23
F9999.0
sS'width'
p24
F9999.0
sS'position_horizontal_type'
p25
g18
sS'stimuluses'
p26
(lp27
sS'position_vertical'
p28
I0
sS'id'
p29
I0
sS'position_vertical_type'
p30
g18
sa(dp31
g17
S'absolute'
p32
sg19
I0
sg20
S'#000000'
p33
sg22
g32
sg23
F9999.0
sg24
F9999.0
sg25
g32
sg26
(lp34
sg28
I0
sg29
I0
sg30
g32
sa(dp35
g17
S'absolute'
p36
sg19
I0
sg20
S'#000000'
p37
sg22
g36
sg23
F9999.0
sg24
F9999.0
sg25
g36
sg26
(lp38
sg28
I0
sg29
I0
sg30
g36
sa(dp39
g17
S'absolute'
p40
sg19
I0
sg20
S'#000000'
p41
sg22
g40
sg23
F9999.0
sg24
F9999.0
sg25
g40
sg26
(lp42
sg28
I0
sg29
I0
sg30
g40
sa(dp43
g17
S'absolute'
p44
sg19
I0
sg20
S'#000000'
p45
sg22
g44
sg23
F9999.0
sg24
F9999.0
sg25
g44
sg26
(lp46
sg28
I0
sg29
I0
sg30
g44
sa(dp47
g17
S'absolute'
p48
sg19
I0
sg20
S'#000000'
p49
sg22
g48
sg23
F9999.0
sg24
F9999.0
sg25
g48
sg26
(lp50
sg28
I0
sg29
I0
sg30
g48
sa(dp51
g17
S'absolute'
p52
sg19
I0
sg20
S'#000000'
p53
sg22
g52
sg23
F9999.0
sg24
F9999.0
sg25
g52
sg26
(lp54
sg28
I0
sg29
I0
sg30
g52
sa(dp55
g17
S'absolute'
p56
sg19
I0
sg20
S'#000000'
p57
sg22
g56
sg23
F9999.0
sg24
F9999.0
sg25
g56
sg26
(lp58
sg28
I0
sg29
I0
sg30
g56
sa(dp59
g17
S'absolute'
p60
sg19
I0
sg20
S'#000000'
p61
sg22
g60
sg23
F9999.0
sg24
F9999.0
sg25
g60
sg26
(lp62
sg28
I0
sg29
I0
sg30
g60
sa(dp63
g17
S'absolute'
p64
sg19
I0
sg20
S'#000000'
p65
sg22
g64
sg23
F9999.0
sg24
F9999.0
sg25
g64
sg26
(lp66
sg28
I0
sg29
I0
sg30
g64
sa(dp67
g17
S'absolute'
p68
sg19
I0
sg20
S'#000000'
p69
sg22
g68
sg23
F9999.0
sg24
F9999.0
sg25
g68
sg26
(lp70
sg28
I0
sg29
I0
sg30
g68
sa(dp71
g17
S'absolute'
p72
sg19
I0
sg20
S'#000000'
p73
sg22
g72
sg23
F9999.0
sg24
F9999.0
sg25
g72
sg26
(lp74
sg28
I0
sg29
I0
sg30
g72
sa(dp75
g17
S'relative'
p76
sg19
S'center'
p77
sg20
S''
p78
sg22
g76
sg23
F0.10000000000000001
sg24
I1
sg25
S'aligned'
p79
sg26
(lp80
(dp81
g17
g76
sg19
g77
sg20
S'#ffffff'
p82
sS'stimulus_type'
p83
S'rectangle'
p84
sg22
g76
sg23
F0.90000000000000002
sg24
I1
sg25
g79
sg26
(lp85
(dp86
S'font_size'
p87
I20
sg19
I20
sg83
S'text'
p88
sg29
I909
sg25
S'absolute'
p89
sg26
(lp90
sS'font_color'
p91
S'#000000'
p92
sS'message'
p93
S'DUPA'
p94
sg28
g77
sS'font_family'
p95
S'Serif'
p96
sg30
g79
sasg28
g77
sg29
I889
sg30
g79
sasg28
S'top'
p97
sg29
I888
sg30
g79
sa(dp98
g17
g76
sg19
g77
sg20
g78
sg22
g76
sg23
F0.90000000000000002
sg24
I1
sg25
g79
sg26
(lp99
(dp100
g17
g76
sg19
F0.0
sg20
g78
sg83
g84
sg22
g76
sg23
F0.5
sg24
F0.25
sg25
g76
sg26
(lp101
(dp102
g17
g76
sg19
g77
sg20
S'#00ff00'
p103
sg83
g84
sg22
g76
sg23
F0.80000000000000004
sg24
F0.80000000000000004
sg25
g79
sg26
(lp104
(dp105
g87
I20
sg19
g77
sg83
g88
sg29
I900
sg25
g79
sg26
(lp106
sg91
g92
sg93
S'X'
p107
sg28
F0.40000000000000002
sg95
g96
sg30
S'relative'
p108
sa(dp109
g17
g68
sS'feedback_level'
p110
F0.0
sg19
S'center'
p111
sg20
S'#ffffff'
p112
sg83
S'feedback'
p113
sg22
g68
sg23
F70.0
sg24
F20.0
sg25
S'aligned'
p114
sg26
(lp115
sg28
F0.5
sg29
I30000
sg30
S'relative'
p116
sasg28
g77
sg29
I11
sg30
g79
sasg28
F0.0
sg29
I1
sg30
g76
sa(dp117
g17
g76
sg19
F0.25
sg20
g78
sg83
g84
sg22
g76
sg23
F0.5
sg24
F0.25
sg25
g76
sg26
(lp118
(dp119
g17
g76
sg19
g77
sg20
g103
sg83
g84
sg22
g76
sg23
F0.80000000000000004
sg24
F0.80000000000000004
sg25
g79
sg26
(lp120
(dp121
g87
I20
sg19
g77
sg83
g88
sg29
I901
sg25
g79
sg26
(lp122
sg91
g92
sg93
S'X'
p123
sg28
F0.40000000000000002
sg95
g96
sg30
S'relative'
p124
sa(dp125
g17
S'absolute'
p126
sg110
F0.0
sg19
S'center'
p127
sg20
S'#ffffff'
p128
sg83
g113
sg22
S'absolute'
p129
sg23
F70.0
sg24
F20.0
sg25
S'aligned'
p130
sg26
(lp131
sg28
F0.5
sg29
I30001
sg30
S'relative'
p132
sasg28
g77
sg29
I21
sg30
g79
sasg28
F0.0
sg29
I2
sg30
g76
sa(dp133
g17
g76
sg19
F0.5
sg20
g78
sg83
g84
sg22
g76
sg23
F0.5
sg24
F0.25
sg25
g76
sg26
(lp134
(dp135
g17
g76
sg19
g77
sg20
g103
sg83
g84
sg22
g76
sg23
F0.80000000000000004
sg24
F0.80000000000000004
sg25
g79
sg26
(lp136
(dp137
g87
I20
sg19
g77
sg83
g88
sg29
I902
sg25
g79
sg26
(lp138
sg91
g92
sg93
S'X'
p139
sg28
F0.40000000000000002
sg95
g96
sg30
S'relative'
p140
sa(dp141
g17
g52
sg110
F0.0
sg19
S'center'
p142
sg20
S'#ffffff'
p143
sg83
g113
sg22
g52
sg23
F70.0
sg24
F20.0
sg25
S'aligned'
p144
sg26
(lp145
sg28
F0.5
sg29
I30002
sg30
S'relative'
p146
sasg28
g77
sg29
I31
sg30
g79
sasg28
F0.0
sg29
I3
sg30
g76
sa(dp147
g17
g76
sg19
F0.75
sg20
g78
sg83
g84
sg22
g76
sg23
F0.5
sg24
F0.25
sg25
g76
sg26
(lp148
(dp149
g17
g76
sg19
g77
sg20
g103
sg83
g84
sg22
g76
sg23
F0.80000000000000004
sg24
F0.80000000000000004
sg25
g79
sg26
(lp150
(dp151
g87
I20
sg19
g77
sg83
g88
sg29
I903
sg25
g79
sg26
(lp152
sg91
g92
sg93
S'X'
p153
sg28
F0.40000000000000002
sg95
g96
sg30
S'relative'
p154
sa(dp155
g17
g44
sg110
F0.0
sg19
S'center'
p156
sg20
S'#ffffff'
p157
sg83
g113
sg22
g44
sg23
F70.0
sg24
F20.0
sg25
S'aligned'
p158
sg26
(lp159
sg28
F0.5
sg29
I30003
sg30
S'relative'
p160
sasg28
g77
sg29
I41
sg30
g79
sasg28
F0.0
sg29
I4
sg30
g76
sa(dp161
g17
g76
sg19
F0.0
sg20
g78
sg83
g84
sg22
g76
sg23
F0.5
sg24
F0.25
sg25
g76
sg26
(lp162
(dp163
g17
g76
sg19
g77
sg20
g103
sg83
g84
sg22
g76
sg23
F0.80000000000000004
sg24
F0.80000000000000004
sg25
g79
sg26
(lp164
(dp165
g87
I20
sg19
g77
sg83
g88
sg29
I904
sg25
g79
sg26
(lp166
sg91
g92
sg93
S'X'
p167
sg28
F0.40000000000000002
sg95
g96
sg30
S'relative'
p168
sa(dp169
g17
g36
sg110
F0.0
sg19
S'center'
p170
sg20
S'#ffffff'
p171
sg83
g113
sg22
g36
sg23
F70.0
sg24
F20.0
sg25
S'aligned'
p172
sg26
(lp173
sg28
F0.5
sg29
I30004
sg30
S'relative'
p174
sasg28
g77
sg29
I51
sg30
g79
sasg28
F0.5
sg29
I5
sg30
g76
sa(dp175
g17
g76
sg19
F0.25
sg20
g78
sg83
g84
sg22
g76
sg23
F0.5
sg24
F0.25
sg25
g76
sg26
(lp176
(dp177
g17
g76
sg19
g77
sg20
g103
sg83
g84
sg22
g76
sg23
F0.80000000000000004
sg24
F0.80000000000000004
sg25
g79
sg26
(lp178
(dp179
g87
I20
sg19
g77
sg83
g88
sg29
I905
sg25
g79
sg26
(lp180
sg91
g92
sg93
S'X'
p181
sg28
F0.40000000000000002
sg95
g96
sg30
S'relative'
p182
sa(dp183
g17
g32
sg110
F0.0
sg19
S'center'
p184
sg20
S'#ffffff'
p185
sg83
g113
sg22
g32
sg23
F70.0
sg24
F20.0
sg25
S'aligned'
p186
sg26
(lp187
sg28
F0.5
sg29
I30005
sg30
S'relative'
p188
sasg28
g77
sg29
I61
sg30
g79
sasg28
F0.5
sg29
I6
sg30
g76
sa(dp189
g17
g76
sg19
F0.5
sg20
g78
sg83
g84
sg22
g76
sg23
F0.5
sg24
F0.25
sg25
g76
sg26
(lp190
(dp191
g17
g76
sg19
g77
sg20
g103
sg83
g84
sg22
g76
sg23
F0.80000000000000004
sg24
F0.80000000000000004
sg25
g79
sg26
(lp192
(dp193
g87
I20
sg19
g77
sg83
g88
sg29
I906
sg25
g79
sg26
(lp194
sg91
g92
sg93
S'X'
p195
sg28
F0.40000000000000002
sg95
g96
sg30
S'relative'
p196
sa(dp197
g17
g32
sg110
F0.0
sg19
S'center'
p198
sg20
S'#ffffff'
p199
sg83
g113
sg22
g32
sg23
F70.0
sg24
F20.0
sg25
S'aligned'
p200
sg26
(lp201
sg28
F0.5
sg29
I30006
sg30
S'relative'
p202
sasg28
g77
sg29
I71
sg30
g79
sasg28
F0.5
sg29
I7
sg30
g76
sa(dp203
g17
g76
sg19
F0.75
sg20
g78
sg83
g84
sg22
g76
sg23
F0.5
sg24
F0.25
sg25
g76
sg26
(lp204
(dp205
g17
g76
sg19
g77
sg20
g103
sg83
g84
sg22
g76
sg23
F0.80000000000000004
sg24
F0.80000000000000004
sg25
g79
sg26
(lp206
(dp207
g87
I20
sg19
g77
sg83
g88
sg29
I907
sg25
g79
sg26
(lp208
sg91
g92
sg93
S'X'
p209
sg28
F0.40000000000000002
sg95
g96
sg30
S'relative'
p210
sa(dp211
g17
g18
sg110
F0.0
sg19
S'center'
p212
sg20
S'#ffffff'
p213
sg83
g113
sg22
g18
sg23
F70.0
sg24
F20.0
sg25
S'aligned'
p214
sg26
(lp215
sg28
F0.5
sg29
I30007
sg30
S'relative'
p216
sasg28
g77
sg29
I81
sg30
g79
sasg28
F0.5
sg29
I8
sg30
g76
sasg28
S'bottom'
p217
sg29
I999
sg30
g79
sa.