(lp0
(dp1
S'width_type'
p2
S'relative'
p3
sS'height_type'
p4
g3
sS'color'
p5
S''
p6
sS'position_horizontal'
p7
S'center'
p8
sS'height'
p9
F0.10000000000000001
sS'width'
p10
I1
sS'position_horizontal_type'
p11
S'aligned'
p12
sS'stimuluses'
p13
(lp14
(dp15
g2
g3
sg4
g3
sg5
S'#ffffff'
p16
sS'stimulus_type'
p17
S'rectangle'
p18
sg7
g8
sg9
F0.90000000000000002
sg10
I1
sg11
g12
sg13
(lp19
(dp20
S'font_size'
p21
I20
sg7
I20
sg17
S'text'
p22
sS'font_family'
p23
S'Serif'
p24
sg11
S'absolute'
p25
sg13
(lp26
sS'font_color'
p27
S'#000000'
p28
sS'message'
p29
S'DUPA'
p30
sS'position_vertical'
p31
g8
sS'id'
p32
I909
sS'position_vertical_type'
p33
g12
sasg31
g8
sg32
I889
sg33
g12
sasg31
S'top'
p34
sg32
I888
sg33
g12
sa(dp35
g2
g3
sg4
g3
sg5
g6
sg7
g8
sg9
F0.90000000000000002
sg10
I1
sg11
g12
sg13
(lp36
(dp37
g2
g3
sg4
g3
sg5
g6
sg17
g18
sg7
F0.0
sg9
F0.5
sg10
F0.25
sg11
g3
sg13
(lp38
(dp39
g2
g3
sg4
g3
sg5
S'#00ff00'
p40
sg17
g18
sg7
g8
sg9
F0.80000000000000004
sg10
F0.80000000000000004
sg11
g12
sg13
(lp41
(dp42
g21
I20
sg7
g8
sg17
g22
sg23
g24
sg11
g12
sg13
(lp43
sg27
g28
sg29
S'X'
p44
sg31
F0.40000000000000002
sg32
I900
sg33
S'relative'
p45
sa(dp46
g2
S'absolute'
p47
sS'feedback_level'
p48
F0.0
sg4
g47
sg5
S'#ffffff'
p49
sg17
S'feedback'
p50
sg7
S'center'
p51
sg9
F70.0
sg10
F20.0
sg11
S'aligned'
p52
sg13
(lp53
sg31
F0.5
sg32
I30000
sg33
S'relative'
p54
sasg31
g8
sg32
I11
sg33
g12
sasg31
F0.0
sg32
I1
sg33
g3
sa(dp55
g2
g3
sg4
g3
sg5
g6
sg17
g18
sg7
F0.25
sg9
F0.5
sg10
F0.25
sg11
g3
sg13
(lp56
(dp57
g2
g3
sg4
g3
sg5
g40
sg17
g18
sg7
g8
sg9
F0.80000000000000004
sg10
F0.80000000000000004
sg11
g12
sg13
(lp58
(dp59
g21
I20
sg7
g8
sg17
g22
sg23
g24
sg11
g12
sg13
(lp60
sg27
g28
sg29
S'X'
p61
sg31
F0.40000000000000002
sg32
I901
sg33
S'relative'
p62
sa(dp63
g2
S'absolute'
p64
sg48
F0.0
sg4
S'absolute'
p65
sg5
S'#ffffff'
p66
sg17
g50
sg7
S'center'
p67
sg9
F70.0
sg10
F20.0
sg11
S'aligned'
p68
sg13
(lp69
sg31
F0.5
sg32
I30001
sg33
S'relative'
p70
sasg31
g8
sg32
I21
sg33
g12
sasg31
F0.0
sg32
I2
sg33
g3
sa(dp71
g2
g3
sg4
g3
sg5
g6
sg17
g18
sg7
F0.5
sg9
F0.5
sg10
F0.25
sg11
g3
sg13
(lp72
(dp73
g2
g3
sg4
g3
sg5
g40
sg17
g18
sg7
g8
sg9
F0.80000000000000004
sg10
F0.80000000000000004
sg11
g12
sg13
(lp74
(dp75
g21
I20
sg7
g8
sg17
g22
sg23
g24
sg11
g12
sg13
(lp76
sg27
g28
sg29
S'X'
p77
sg31
F0.40000000000000002
sg32
I902
sg33
S'relative'
p78
sa(dp79
g2
S'absolute'
p80
sg48
F0.0
sg4
g80
sg5
S'#ffffff'
p81
sg17
g50
sg7
S'center'
p82
sg9
F70.0
sg10
F20.0
sg11
S'aligned'
p83
sg13
(lp84
sg31
F0.5
sg32
I30002
sg33
S'relative'
p85
sasg31
g8
sg32
I31
sg33
g12
sasg31
F0.0
sg32
I3
sg33
g3
sa(dp86
g2
g3
sg4
g3
sg5
g6
sg17
g18
sg7
F0.75
sg9
F0.5
sg10
F0.25
sg11
g3
sg13
(lp87
(dp88
g2
g3
sg4
g3
sg5
g40
sg17
g18
sg7
g8
sg9
F0.80000000000000004
sg10
F0.80000000000000004
sg11
g12
sg13
(lp89
(dp90
g21
I20
sg7
g8
sg17
g22
sg23
g24
sg11
g12
sg13
(lp91
sg27
g28
sg29
S'X'
p92
sg31
F0.40000000000000002
sg32
I903
sg33
S'relative'
p93
sa(dp94
g2
S'absolute'
p95
sg48
F0.0
sg4
g95
sg5
S'#ffffff'
p96
sg17
g50
sg7
S'center'
p97
sg9
F70.0
sg10
F20.0
sg11
S'aligned'
p98
sg13
(lp99
sg31
F0.5
sg32
I30003
sg33
S'relative'
p100
sasg31
g8
sg32
I41
sg33
g12
sasg31
F0.0
sg32
I4
sg33
g3
sa(dp101
g2
g3
sg4
g3
sg5
g6
sg17
g18
sg7
F0.0
sg9
F0.5
sg10
F0.25
sg11
g3
sg13
(lp102
(dp103
g2
g3
sg4
g3
sg5
g40
sg17
g18
sg7
g8
sg9
F0.80000000000000004
sg10
F0.80000000000000004
sg11
g12
sg13
(lp104
(dp105
g21
I20
sg7
g8
sg17
g22
sg23
g24
sg11
g12
sg13
(lp106
sg27
g28
sg29
S'X'
p107
sg31
F0.40000000000000002
sg32
I904
sg33
S'relative'
p108
sa(dp109
g2
S'absolute'
p110
sg48
F0.0
sg4
g110
sg5
S'#ffffff'
p111
sg17
g50
sg7
S'center'
p112
sg9
F70.0
sg10
F20.0
sg11
S'aligned'
p113
sg13
(lp114
sg31
F0.5
sg32
I30004
sg33
S'relative'
p115
sasg31
g8
sg32
I51
sg33
g12
sasg31
F0.5
sg32
I5
sg33
g3
sa(dp116
g2
g3
sg4
g3
sg5
g6
sg17
g18
sg7
F0.25
sg9
F0.5
sg10
F0.25
sg11
g3
sg13
(lp117
(dp118
g2
g3
sg4
g3
sg5
g40
sg17
g18
sg7
g8
sg9
F0.80000000000000004
sg10
F0.80000000000000004
sg11
g12
sg13
(lp119
(dp120
g21
I20
sg7
g8
sg17
g22
sg23
g24
sg11
g12
sg13
(lp121
sg27
g28
sg29
S'X'
p122
sg31
F0.40000000000000002
sg32
I905
sg33
S'relative'
p123
sa(dp124
g2
S'absolute'
p125
sg48
F0.0
sg4
g125
sg5
S'#ffffff'
p126
sg17
g50
sg7
S'center'
p127
sg9
F70.0
sg10
F20.0
sg11
S'aligned'
p128
sg13
(lp129
sg31
F0.5
sg32
I30005
sg33
S'relative'
p130
sasg31
g8
sg32
I61
sg33
g12
sasg31
F0.5
sg32
I6
sg33
g3
sa(dp131
g2
g3
sg4
g3
sg5
g6
sg17
g18
sg7
F0.5
sg9
F0.5
sg10
F0.25
sg11
g3
sg13
(lp132
(dp133
g2
g3
sg4
g3
sg5
g40
sg17
g18
sg7
g8
sg9
F0.80000000000000004
sg10
F0.80000000000000004
sg11
g12
sg13
(lp134
(dp135
g21
I20
sg7
g8
sg17
g22
sg23
g24
sg11
g12
sg13
(lp136
sg27
g28
sg29
S'X'
p137
sg31
F0.40000000000000002
sg32
I906
sg33
S'relative'
p138
sa(dp139
g2
g125
sg48
F0.0
sg4
g125
sg5
S'#ffffff'
p140
sg17
g50
sg7
S'center'
p141
sg9
F70.0
sg10
F20.0
sg11
S'aligned'
p142
sg13
(lp143
sg31
F0.5
sg32
I30006
sg33
S'relative'
p144
sasg31
g8
sg32
I71
sg33
g12
sasg31
F0.5
sg32
I7
sg33
g3
sa(dp145
g2
g3
sg4
g3
sg5
g6
sg17
g18
sg7
F0.75
sg9
F0.5
sg10
F0.25
sg11
g3
sg13
(lp146
(dp147
g2
g3
sg4
g3
sg5
g40
sg17
g18
sg7
g8
sg9
F0.80000000000000004
sg10
F0.80000000000000004
sg11
g12
sg13
(lp148
(dp149
g21
I20
sg7
g8
sg17
g22
sg23
g24
sg11
g12
sg13
(lp150
sg27
g28
sg29
S'X'
p151
sg31
F0.40000000000000002
sg32
I907
sg33
S'relative'
p152
sa(dp153
g2
S'absolute'
p154
sg48
F0.0
sg4
g154
sg5
S'#ffffff'
p155
sg17
g50
sg7
S'center'
p156
sg9
F70.0
sg10
F20.0
sg11
S'aligned'
p157
sg13
(lp158
sg31
F0.5
sg32
I30007
sg33
S'relative'
p159
sasg31
g8
sg32
I81
sg33
g12
sasg31
F0.5
sg32
I8
sg33
g3
sasg31
S'bottom'
p160
sg32
I999
sg33
g12
sa.